Archive member included because of file (symbol)

/home/defaultuser/nibolib/lib/libnibo2.a(display.o)
                              ./src/display/advDisplay.o (display_init)
/home/defaultuser/nibolib/lib/libnibo2.a(delay.o)
                              ./src/xbee/niboCom.o (delay)
/home/defaultuser/nibolib/lib/libnibo2.a(spi.o)
                              ./src/main.o (spi_init)
/home/defaultuser/nibolib/lib/libnibo2.a(gfx.o)
                              ./src/display/advDisplay.o (gfx_init)
/home/defaultuser/nibolib/lib/libnibo2.a(copro.o)
                              ./src/nds3/ndsScan.o (copro_update)
/home/defaultuser/nibolib/lib/libnibo2.a(bot.o)
                              ./src/main.o (bot_update)
/home/defaultuser/nibolib/lib/libnibo2.a(leds.o)
                              ./src/main.o (leds_init)
/home/defaultuser/nibolib/lib/libnibo2.a(sound.o)
                              ./src/main.o (sound_init)
/home/defaultuser/nibolib/lib/libnibo2.a(pwm.o)
                              /home/defaultuser/nibolib/lib/libnibo2.a(leds.o) (pwm_channel_A)
/home/defaultuser/nibolib/lib/libnibo2.a(adc.o)
                              /home/defaultuser/nibolib/lib/libnibo2.a(bot.o) (adc_read)
/usr/lib/gcc/avr/4.3.4/../../../avr/lib/avr51/libm.a(addsf3.o)
                              ./src/main.o (__subsf3)
/usr/lib/gcc/avr/4.3.4/../../../avr/lib/avr51/libm.a(addsf3x.o)
                              /usr/lib/gcc/avr/4.3.4/../../../avr/lib/avr51/libm.a(addsf3.o) (__addsf3x)
/usr/lib/gcc/avr/4.3.4/../../../avr/lib/avr51/libm.a(cmpsf2.o)
                              ./src/main.o (__lesf2)
/usr/lib/gcc/avr/4.3.4/../../../avr/lib/avr51/libm.a(floatsisf.o)
                              ./src/main.o (__floatunsisf)
/usr/lib/gcc/avr/4.3.4/../../../avr/lib/avr51/libm.a(fp_cmp.o)
                              /usr/lib/gcc/avr/4.3.4/../../../avr/lib/avr51/libm.a(cmpsf2.o) (__fp_cmp)
/usr/lib/gcc/avr/4.3.4/../../../avr/lib/avr51/libm.a(fp_inf.o)
                              /usr/lib/gcc/avr/4.3.4/../../../avr/lib/avr51/libm.a(addsf3x.o) (__fp_inf)
/usr/lib/gcc/avr/4.3.4/../../../avr/lib/avr51/libm.a(fp_nan.o)
                              /usr/lib/gcc/avr/4.3.4/../../../avr/lib/avr51/libm.a(addsf3x.o) (__fp_nan)
/usr/lib/gcc/avr/4.3.4/../../../avr/lib/avr51/libm.a(fp_pscA.o)
                              /usr/lib/gcc/avr/4.3.4/../../../avr/lib/avr51/libm.a(addsf3x.o) (__fp_pscA)
/usr/lib/gcc/avr/4.3.4/../../../avr/lib/avr51/libm.a(fp_pscB.o)
                              /usr/lib/gcc/avr/4.3.4/../../../avr/lib/avr51/libm.a(addsf3x.o) (__fp_pscB)
/usr/lib/gcc/avr/4.3.4/../../../avr/lib/avr51/libm.a(fp_round.o)
                              /usr/lib/gcc/avr/4.3.4/../../../avr/lib/avr51/libm.a(addsf3.o) (__fp_round)
/usr/lib/gcc/avr/4.3.4/../../../avr/lib/avr51/libm.a(fp_split3.o)
                              /usr/lib/gcc/avr/4.3.4/../../../avr/lib/avr51/libm.a(addsf3x.o) (__fp_split3)
/usr/lib/gcc/avr/4.3.4/../../../avr/lib/avr51/libm.a(fp_zero.o)
                              /usr/lib/gcc/avr/4.3.4/../../../avr/lib/avr51/libm.a(addsf3x.o) (__fp_zero)
/usr/lib/gcc/avr/4.3.4/../../../avr/lib/avr51/libm.a(mulsf3.o)
                              ./src/main.o (__mulsf3)
/usr/lib/gcc/avr/4.3.4/../../../avr/lib/avr51/libm.a(mulsf3x.o)
                              /usr/lib/gcc/avr/4.3.4/../../../avr/lib/avr51/libm.a(mulsf3.o) (__mulsf3x)
/usr/lib/gcc/avr/4.3.4/../../../avr/lib/avr51/libprintf_flt.a(vfprintf_flt.o)
                              (vfprintf)
/home/defaultuser/nibolib/lib/libnds3.a(i2cmaster.o)
                              ./src/nds3/ndsScan.o (i2c_init)
/home/defaultuser/nibolib/lib/libnds3.a(nds3.o)
                              ./src/nds3/ndsScan.o (nds3_get_dist)
/usr/lib/gcc/avr/4.3.4/avr51/libgcc.a(_udivmodqi4.o)
                              ./src/nds3/ndsScan.o (__udivmodqi4)
/usr/lib/gcc/avr/4.3.4/avr51/libgcc.a(_divmodhi4.o)
                              ./src/display/advDisplay.o (__divmodhi4)
/usr/lib/gcc/avr/4.3.4/avr51/libgcc.a(_udivmodsi4.o)
                              ./src/xbee/uart0.o (__udivmodsi4)
/usr/lib/gcc/avr/4.3.4/avr51/libgcc.a(_divmodsi4.o)
                              ./src/sound/n2sound.o (__divmodsi4)
/usr/lib/gcc/avr/4.3.4/avr51/libgcc.a(_exit.o)
                              /usr/lib/gcc/avr/4.3.4/../../../avr/lib/avr51/crtm128.o (exit)
/usr/lib/gcc/avr/4.3.4/avr51/libgcc.a(_clear_bss.o)
                              ./src/xbee/niboCom.o (__do_clear_bss)
/usr/lib/gcc/avr/4.3.4/avr51/libgcc.a(_udivmodhi4.o)
                              /usr/lib/gcc/avr/4.3.4/avr51/libgcc.a(_divmodhi4.o) (__udivmodhi4)
/usr/lib/gcc/avr/4.3.4/../../../avr/lib/avr51/libc.a(ftoa_engine.o)
                              /usr/lib/gcc/avr/4.3.4/../../../avr/lib/avr51/libprintf_flt.a(vfprintf_flt.o) (__ftoa_engine)
/usr/lib/gcc/avr/4.3.4/../../../avr/lib/avr51/libc.a(strnlen_P.o)
                              /usr/lib/gcc/avr/4.3.4/../../../avr/lib/avr51/libprintf_flt.a(vfprintf_flt.o) (strnlen_P)
/usr/lib/gcc/avr/4.3.4/../../../avr/lib/avr51/libc.a(strcpy.o)
                              ./src/display/advDisplay.o (strcpy)
/usr/lib/gcc/avr/4.3.4/../../../avr/lib/avr51/libc.a(strnlen.o)
                              /usr/lib/gcc/avr/4.3.4/../../../avr/lib/avr51/libprintf_flt.a(vfprintf_flt.o) (strnlen)
/usr/lib/gcc/avr/4.3.4/../../../avr/lib/avr51/libc.a(fputc.o)
                              /usr/lib/gcc/avr/4.3.4/../../../avr/lib/avr51/libprintf_flt.a(vfprintf_flt.o) (fputc)
/usr/lib/gcc/avr/4.3.4/../../../avr/lib/avr51/libc.a(sprintf.o)
                              ./src/display/advDisplay.o (sprintf)
/usr/lib/gcc/avr/4.3.4/../../../avr/lib/avr51/libc.a(ultoa_invert.o)
                              /usr/lib/gcc/avr/4.3.4/../../../avr/lib/avr51/libprintf_flt.a(vfprintf_flt.o) (__ultoa_invert)

Allocating common symbols
Common symbol       size              file

copro_ticks_offset_r
                    0x2               /home/defaultuser/nibolib/lib/libnibo2.a(copro.o)
nds3_distcalib_alpha
                    0x2               /home/defaultuser/nibolib/lib/libnds3.a(nds3.o)
copro_ticks_offset_l
                    0x2               /home/defaultuser/nibolib/lib/libnibo2.a(copro.o)
nds3_servocalib_mid
                    0x2               /home/defaultuser/nibolib/lib/libnds3.a(nds3.o)
copro_current_l     0x2               /home/defaultuser/nibolib/lib/libnibo2.a(copro.o)
nds3_pin            0x1               /home/defaultuser/nibolib/lib/libnds3.a(nds3.o)
gfx_dm              0x1               /home/defaultuser/nibolib/lib/libnibo2.a(gfx.o)
adc_random_seed     0x2               /home/defaultuser/nibolib/lib/libnibo2.a(adc.o)
spi_tx_buf          0x1b              /home/defaultuser/nibolib/lib/libnibo2.a(spi.o)
copro_commands      0x15              /home/defaultuser/nibolib/lib/libnibo2.a(copro.o)
spi_rx_size         0x1               /home/defaultuser/nibolib/lib/libnibo2.a(spi.o)
copro_ticks_l       0x2               /home/defaultuser/nibolib/lib/libnibo2.a(copro.o)
i2c_buf             0x14              /home/defaultuser/nibolib/lib/libnds3.a(i2cmaster.o)
copro_rc5_cmd       0x2               /home/defaultuser/nibolib/lib/libnibo2.a(copro.o)
pwm_channel_A       0x2               /home/defaultuser/nibolib/lib/libnibo2.a(pwm.o)
copro_distance      0xa               /home/defaultuser/nibolib/lib/libnibo2.a(copro.o)
spi_err_cnt         0x1               /home/defaultuser/nibolib/lib/libnibo2.a(spi.o)
nds3_ddr            0x1               /home/defaultuser/nibolib/lib/libnds3.a(nds3.o)
i2c_state           0x1               /home/defaultuser/nibolib/lib/libnds3.a(i2cmaster.o)
copro_pos_x         0x4               /home/defaultuser/nibolib/lib/libnibo2.a(copro.o)
copro_pos_ori       0x4               /home/defaultuser/nibolib/lib/libnibo2.a(copro.o)
copro_speed_r       0x2               /home/defaultuser/nibolib/lib/libnibo2.a(copro.o)
pwm_channel_B       0x2               /home/defaultuser/nibolib/lib/libnibo2.a(pwm.o)
pwm_timer_ms        0x2               /home/defaultuser/nibolib/lib/libnibo2.a(pwm.o)
spi_tx_size         0x1               /home/defaultuser/nibolib/lib/libnibo2.a(spi.o)
gfx_term_row        0x1               /home/defaultuser/nibolib/lib/libnibo2.a(gfx.o)
gfx_proportional    0x1               /home/defaultuser/nibolib/lib/libnibo2.a(gfx.o)
copro_ticks_r       0x2               /home/defaultuser/nibolib/lib/libnibo2.a(copro.o)
uart0_txbuf_begin   0x1               ./src/xbee/uart0.o
copro_pos_y         0x4               /home/defaultuser/nibolib/lib/libnibo2.a(copro.o)
bot_supply          0x2               /home/defaultuser/nibolib/lib/libnibo2.a(bot.o)
buffer              0xa               ./src/xbee/niboCom.o
spi_frame_cnt       0x1               /home/defaultuser/nibolib/lib/libnibo2.a(spi.o)
i2c_size            0x1               /home/defaultuser/nibolib/lib/libnds3.a(i2cmaster.o)
copro_ir_mode       0x1               /home/defaultuser/nibolib/lib/libnibo2.a(copro.o)
spi_size            0x1               /home/defaultuser/nibolib/lib/libnibo2.a(spi.o)
copro_rc5_count     0x1               /home/defaultuser/nibolib/lib/libnibo2.a(copro.o)
nds3_distances      0xb5              /home/defaultuser/nibolib/lib/libnds3.a(nds3.o)
display_type        0x1               /home/defaultuser/nibolib/lib/libnibo2.a(display.o)
uart0_rxbuf         0x32              ./src/xbee/uart0.o
uart0_txbuf         0xc8              ./src/xbee/uart0.o
nds3_port           0x1               /home/defaultuser/nibolib/lib/libnds3.a(nds3.o)
gfx_x               0x1               /home/defaultuser/nibolib/lib/libnibo2.a(gfx.o)
copro_current_r     0x2               /home/defaultuser/nibolib/lib/libnibo2.a(copro.o)
copro_buffer        0x1b              /home/defaultuser/nibolib/lib/libnibo2.a(copro.o)
i2c_last_TWSR       0x1               /home/defaultuser/nibolib/lib/libnds3.a(i2cmaster.o)
i2c_tx_size         0x1               /home/defaultuser/nibolib/lib/libnds3.a(i2cmaster.o)
spi_rx_buf          0x1b              /home/defaultuser/nibolib/lib/libnibo2.a(spi.o)
uart0_rxbuf_begin   0x1               ./src/xbee/uart0.o
i2c_pos             0x1               /home/defaultuser/nibolib/lib/libnds3.a(i2cmaster.o)
gfx_tile            0x8               /home/defaultuser/nibolib/lib/libnibo2.a(gfx.o)
pwm_channel_C       0x2               /home/defaultuser/nibolib/lib/libnibo2.a(pwm.o)
nds3_servocalib_lo  0x2               /home/defaultuser/nibolib/lib/libnds3.a(nds3.o)
spi_tx_chk          0x1               /home/defaultuser/nibolib/lib/libnibo2.a(spi.o)
uart0_rxbuf_end     0x1               ./src/xbee/uart0.o
pwm_timer_sub       0x2               /home/defaultuser/nibolib/lib/libnibo2.a(pwm.o)
pwm_timer_sec       0x4               /home/defaultuser/nibolib/lib/libnibo2.a(pwm.o)
spi_pos             0x1               /home/defaultuser/nibolib/lib/libnibo2.a(spi.o)
uart0_txbuf_end     0x1               ./src/xbee/uart0.o
gfx_y               0x1               /home/defaultuser/nibolib/lib/libnibo2.a(gfx.o)
copro_target_distance
                    0x2               /home/defaultuser/nibolib/lib/libnibo2.a(copro.o)
nds3_distcalib_v0   0x2               /home/defaultuser/nibolib/lib/libnds3.a(nds3.o)
spi_rx_chk          0x1               /home/defaultuser/nibolib/lib/libnibo2.a(spi.o)
i2c_rx_size         0x1               /home/defaultuser/nibolib/lib/libnds3.a(i2cmaster.o)
gfx_term_col        0x1               /home/defaultuser/nibolib/lib/libnibo2.a(gfx.o)
copro_seq           0x1               /home/defaultuser/nibolib/lib/libnibo2.a(copro.o)
copro_speed_l       0x2               /home/defaultuser/nibolib/lib/libnibo2.a(copro.o)
nds3_distcalib_d0   0x2               /home/defaultuser/nibolib/lib/libnds3.a(nds3.o)
nds_scan            0x2               ./src/main.o
nds3_servocalib_hi  0x2               /home/defaultuser/nibolib/lib/libnds3.a(nds3.o)

Memory Configuration

Name             Origin             Length             Attributes
text             0x00000000         0x00020000         xr
data             0x00800060         0x0000ffa0         rw !x
eeprom           0x00810000         0x00010000         rw !x
fuse             0x00820000         0x00000400         rw !x
lock             0x00830000         0x00000400         rw !x
signature        0x00840000         0x00000400         rw !x
*default*        0x00000000         0xffffffff

Linker script and memory map

Address of section .data set to 0x800100
LOAD /usr/lib/gcc/avr/4.3.4/../../../avr/lib/avr51/crtm128.o
LOAD ./src/xbee/niboCom.o
LOAD ./src/xbee/uart0.o
LOAD ./src/sound/n2sound.o
LOAD ./src/nds3/ndsScan.o
LOAD ./src/main.o
LOAD ./src/drive/drive.o
LOAD ./src/display/advDisplay.o
LOAD /home/defaultuser/nibolib/lib/libnibo2.a
LOAD /usr/lib/gcc/avr/4.3.4/../../../avr/lib/avr51/libm.a
LOAD /usr/lib/gcc/avr/4.3.4/../../../avr/lib/avr51/libprintf_flt.a
LOAD /home/defaultuser/nibolib/lib/libnds3.a
LOAD /home/defaultuser/nibolib/lib/libxbee-1.a
LOAD /usr/lib/gcc/avr/4.3.4/avr51/libgcc.a
LOAD /usr/lib/gcc/avr/4.3.4/../../../avr/lib/avr51/libc.a
LOAD /usr/lib/gcc/avr/4.3.4/avr51/libgcc.a

.hash
 *(.hash)

.dynsym
 *(.dynsym)

.dynstr
 *(.dynstr)

.gnu.version
 *(.gnu.version)

.gnu.version_d
 *(.gnu.version_d)

.gnu.version_r
 *(.gnu.version_r)

.rel.init
 *(.rel.init)

.rela.init
 *(.rela.init)

.rel.text
 *(.rel.text)
 *(.rel.text.*)
 *(.rel.gnu.linkonce.t*)

.rela.text
 *(.rela.text)
 *(.rela.text.*)
 *(.rela.gnu.linkonce.t*)

.rel.fini
 *(.rel.fini)

.rela.fini
 *(.rela.fini)

.rel.rodata
 *(.rel.rodata)
 *(.rel.rodata.*)
 *(.rel.gnu.linkonce.r*)

.rela.rodata
 *(.rela.rodata)
 *(.rela.rodata.*)
 *(.rela.gnu.linkonce.r*)

.rel.data
 *(.rel.data)
 *(.rel.data.*)
 *(.rel.gnu.linkonce.d*)

.rela.data
 *(.rela.data)
 *(.rela.data.*)
 *(.rela.gnu.linkonce.d*)

.rel.ctors
 *(.rel.ctors)

.rela.ctors
 *(.rela.ctors)

.rel.dtors
 *(.rel.dtors)

.rela.dtors
 *(.rela.dtors)

.rel.got
 *(.rel.got)

.rela.got
 *(.rela.got)

.rel.bss
 *(.rel.bss)

.rela.bss
 *(.rela.bss)

.rel.plt
 *(.rel.plt)

.rela.plt
 *(.rela.plt)

.text           0x00000000     0x3958
 *(.vectors)
 .vectors       0x00000000       0x8c /usr/lib/gcc/avr/4.3.4/../../../avr/lib/avr51/crtm128.o
                0x00000000                __vectors
                0x00000000                __vector_default
 *(.vectors)
 *(.progmem.gcc*)
 *(.progmem*)
 .progmem.data  0x0000008c      0x1a4 ./src/display/advDisplay.o
 .progmem.data  0x00000230        0x9 /home/defaultuser/nibolib/lib/libnibo2.a(bot.o)
                0x00000230                bot_lib_revision
                0x00000234                bot_lib_version
 .progmem.data  0x00000239        0x8 /usr/lib/gcc/avr/4.3.4/../../../avr/lib/avr51/libprintf_flt.a(vfprintf_flt.o)
 .progmem.data  0x00000241       0xfa /usr/lib/gcc/avr/4.3.4/../../../avr/lib/avr51/libc.a(ftoa_engine.o)
                0x0000033c                . = ALIGN (0x2)
 *fill*         0x0000033b        0x1 00
                0x0000033c                __trampolines_start = .
 *(.trampolines)
 .trampolines   0x0000033c        0x0 linker stubs
 *(.trampolines*)
                0x0000033c                __trampolines_end = .
 *(.jumptables)
 *(.jumptables*)
 *(.lowtext)
 *(.lowtext*)
                0x0000033c                __ctors_start = .
 *(.ctors)
                0x0000033c                __ctors_end = .
                0x0000033c                __dtors_start = .
 *(.dtors)
                0x0000033c                __dtors_end = .
 SORT(*)(.ctors)
 SORT(*)(.dtors)
 *(.init0)
 .init0         0x0000033c        0x0 /usr/lib/gcc/avr/4.3.4/../../../avr/lib/avr51/crtm128.o
                0x0000033c                __init
 *(.init0)
 *(.init1)
 *(.init1)
 *(.init2)
 .init2         0x0000033c        0xc /usr/lib/gcc/avr/4.3.4/../../../avr/lib/avr51/crtm128.o
 *(.init2)
 *(.init3)
 *(.init3)
 *(.init4)
 .init4         0x00000348       0x1a /usr/lib/gcc/avr/4.3.4/../../../avr/lib/avr51/crtm128.o
                0x00000348                __do_copy_data
 .init4         0x00000362       0x10 /usr/lib/gcc/avr/4.3.4/avr51/libgcc.a(_clear_bss.o)
                0x00000362                __do_clear_bss
 *(.init4)
 *(.init5)
 *(.init5)
 *(.init6)
 *(.init6)
 *(.init7)
 *(.init7)
 *(.init8)
 *(.init8)
 *(.init9)
 .init9         0x00000372        0x8 /usr/lib/gcc/avr/4.3.4/../../../avr/lib/avr51/crtm128.o
 *(.init9)
 *(.text)
 .text          0x0000037a        0x4 /usr/lib/gcc/avr/4.3.4/../../../avr/lib/avr51/crtm128.o
                0x0000037a                __vector_22
                0x0000037a                __vector_28
                0x0000037a                __vector_1
                0x0000037a                __vector_32
                0x0000037a                __vector_34
                0x0000037a                __vector_24
                0x0000037a                __vector_12
                0x0000037a                __bad_interrupt
                0x0000037a                __vector_6
                0x0000037a                __vector_31
                0x0000037a                __vector_3
                0x0000037a                __vector_23
                0x0000037a                __vector_30
                0x0000037a                __vector_25
                0x0000037a                __vector_11
                0x0000037a                __vector_13
                0x0000037a                __vector_7
                0x0000037a                __vector_27
                0x0000037a                __vector_5
                0x0000037a                __vector_4
                0x0000037a                __vector_9
                0x0000037a                __vector_2
                0x0000037a                __vector_21
                0x0000037a                __vector_15
                0x0000037a                __vector_29
                0x0000037a                __vector_8
                0x0000037a                __vector_26
                0x0000037a                __vector_16
                0x0000037a                __vector_20
 .text          0x0000037e      0x17e ./src/xbee/niboCom.o
                0x0000037e                niboCom_getCMD
                0x0000038c                niboCom_getchar
                0x000003a2                niboCom_uartInterrupt
                0x000003fa                niboCom_putchar
                0x00000416                niboCom_putPacket
                0x0000046a                niboCom_putDistance
                0x0000048c                niboCom_putDircetionChange
                0x00000498                niboCom_putNDSDistance
                0x000004a6                niboCom_putIRDistance
                0x000004ee                niboCom_init
 .text          0x000004fc      0x184 ./src/xbee/uart0.o
                0x000004fc                uart0_set_baudrate
                0x00000528                uart0_getchar
                0x0000055a                uart0_putchar
                0x00000594                uart0_enable
                0x0000059a                uart0_disable
                0x0000059e                __vector_19
                0x000005fc                __vector_18
 .text          0x00000680       0x88 ./src/sound/n2sound.o
                0x00000680                tone
 .text          0x00000708       0x64 ./src/nds3/ndsScan.o
                0x00000708                ndsScan_init
                0x00000716                ndsScan
 .text          0x0000076c      0x400 ./src/main.o
                0x0000076c                checkDistance
                0x00000804                autoMode
                0x000008ba                initBot
                0x00000980                main
                0x00000ab2                __vector_10
 .text          0x00000b6c      0x244 ./src/drive/drive.o
                0x00000b6c                drive_isFrontFree
                0x00000ba6                drive_isRightFree
                0x00000bca                drive_isLeftFree
                0x00000bee                drive_getFreePath
                0x00000c60                drive_sendIRDistance
                0x00000c7e                drive_sendTicks
                0x00000ca2                drive_turn_around
                0x00000cc2                drive_turn_halfRight
                0x00000ce2                drive_turn_right
                0x00000d02                drive_turn_halfLeft
                0x00000d22                drive_turn_left
                0x00000d42                drive
 .text          0x00000db0      0x250 ./src/display/advDisplay.o
                0x00000db0                advDisplay_printTerminal
                0x00000e4c                advDisplay_append_line
                0x00000eba                advDisplay_clear
                0x00000f0c                advDisplay_init
                0x00000f2a                advDisplay_printVoltage
 .text          0x00001000        0x0 /home/defaultuser/nibolib/lib/libnibo2.a(display.o)
 .text          0x00001000        0x0 /home/defaultuser/nibolib/lib/libnibo2.a(delay.o)
 .text          0x00001000        0x0 /home/defaultuser/nibolib/lib/libnibo2.a(spi.o)
 .text          0x00001000        0x0 /home/defaultuser/nibolib/lib/libnibo2.a(gfx.o)
 .text          0x00001000        0x0 /home/defaultuser/nibolib/lib/libnibo2.a(copro.o)
 .text          0x00001000        0x0 /home/defaultuser/nibolib/lib/libnibo2.a(bot.o)
 .text          0x00001000        0x0 /home/defaultuser/nibolib/lib/libnibo2.a(leds.o)
 .text          0x00001000        0x0 /home/defaultuser/nibolib/lib/libnibo2.a(sound.o)
 .text          0x00001000        0x0 /home/defaultuser/nibolib/lib/libnibo2.a(pwm.o)
 .text          0x00001000        0x0 /home/defaultuser/nibolib/lib/libnibo2.a(adc.o)
 .text          0x00001000        0x0 /usr/lib/gcc/avr/4.3.4/../../../avr/lib/avr51/libm.a(addsf3.o)
 .text          0x00001000        0x0 /usr/lib/gcc/avr/4.3.4/../../../avr/lib/avr51/libm.a(addsf3x.o)
 .text          0x00001000        0x0 /usr/lib/gcc/avr/4.3.4/../../../avr/lib/avr51/libm.a(cmpsf2.o)
 .text          0x00001000        0x0 /usr/lib/gcc/avr/4.3.4/../../../avr/lib/avr51/libm.a(floatsisf.o)
 .text          0x00001000        0x0 /usr/lib/gcc/avr/4.3.4/../../../avr/lib/avr51/libm.a(fp_cmp.o)
 .text          0x00001000        0x0 /usr/lib/gcc/avr/4.3.4/../../../avr/lib/avr51/libm.a(fp_inf.o)
 .text          0x00001000        0x0 /usr/lib/gcc/avr/4.3.4/../../../avr/lib/avr51/libm.a(fp_nan.o)
 .text          0x00001000        0x0 /usr/lib/gcc/avr/4.3.4/../../../avr/lib/avr51/libm.a(fp_pscA.o)
 .text          0x00001000        0x0 /usr/lib/gcc/avr/4.3.4/../../../avr/lib/avr51/libm.a(fp_pscB.o)
 .text          0x00001000        0x0 /usr/lib/gcc/avr/4.3.4/../../../avr/lib/avr51/libm.a(fp_round.o)
 .text          0x00001000        0x0 /usr/lib/gcc/avr/4.3.4/../../../avr/lib/avr51/libm.a(fp_split3.o)
 .text          0x00001000        0x0 /usr/lib/gcc/avr/4.3.4/../../../avr/lib/avr51/libm.a(fp_zero.o)
 .text          0x00001000        0x0 /usr/lib/gcc/avr/4.3.4/../../../avr/lib/avr51/libm.a(mulsf3.o)
 .text          0x00001000        0x0 /usr/lib/gcc/avr/4.3.4/../../../avr/lib/avr51/libm.a(mulsf3x.o)
 .text          0x00001000        0x0 /usr/lib/gcc/avr/4.3.4/../../../avr/lib/avr51/libprintf_flt.a(vfprintf_flt.o)
 .text          0x00001000        0x0 /home/defaultuser/nibolib/lib/libnds3.a(i2cmaster.o)
 .text          0x00001000        0x0 /home/defaultuser/nibolib/lib/libnds3.a(nds3.o)
 .text          0x00001000        0x0 /usr/lib/gcc/avr/4.3.4/avr51/libgcc.a(_udivmodqi4.o)
 .text          0x00001000        0x0 /usr/lib/gcc/avr/4.3.4/avr51/libgcc.a(_divmodhi4.o)
 .text          0x00001000        0x0 /usr/lib/gcc/avr/4.3.4/avr51/libgcc.a(_udivmodsi4.o)
 .text          0x00001000        0x0 /usr/lib/gcc/avr/4.3.4/avr51/libgcc.a(_divmodsi4.o)
 .text          0x00001000        0x0 /usr/lib/gcc/avr/4.3.4/avr51/libgcc.a(_exit.o)
 .text          0x00001000        0x0 /usr/lib/gcc/avr/4.3.4/avr51/libgcc.a(_clear_bss.o)
 .text          0x00001000        0x0 /usr/lib/gcc/avr/4.3.4/avr51/libgcc.a(_udivmodhi4.o)
 .text          0x00001000        0x0 /usr/lib/gcc/avr/4.3.4/../../../avr/lib/avr51/libc.a(ftoa_engine.o)
 .text          0x00001000        0x0 /usr/lib/gcc/avr/4.3.4/../../../avr/lib/avr51/libc.a(strnlen_P.o)
 .text          0x00001000        0x0 /usr/lib/gcc/avr/4.3.4/../../../avr/lib/avr51/libc.a(strcpy.o)
 .text          0x00001000        0x0 /usr/lib/gcc/avr/4.3.4/../../../avr/lib/avr51/libc.a(strnlen.o)
 .text          0x00001000        0x0 /usr/lib/gcc/avr/4.3.4/../../../avr/lib/avr51/libc.a(fputc.o)
 .text          0x00001000        0x0 /usr/lib/gcc/avr/4.3.4/../../../avr/lib/avr51/libc.a(sprintf.o)
 .text          0x00001000        0x0 /usr/lib/gcc/avr/4.3.4/../../../avr/lib/avr51/libc.a(ultoa_invert.o)
                0x00001000                . = ALIGN (0x2)
 *(.text.*)
 .text.display_write
                0x00001000       0x86 /home/defaultuser/nibolib/lib/libnibo2.a(display.o)
                0x00001000                display_write
 .text.display_read
                0x00001086       0x82 /home/defaultuser/nibolib/lib/libnibo2.a(display.o)
                0x00001086                display_read
 .text.display_wait
                0x00001108       0x34 /home/defaultuser/nibolib/lib/libnibo2.a(display.o)
                0x00001108                display_wait
 .text.display_init
                0x0000113c       0xbc /home/defaultuser/nibolib/lib/libnibo2.a(display.o)
                0x0000113c                display_init
 .text.delay    0x000011f8       0x14 /home/defaultuser/nibolib/lib/libnibo2.a(delay.o)
                0x000011f8                delay
 .text.spi_restart_transmission
                0x0000120c       0x3a /home/defaultuser/nibolib/lib/libnibo2.a(spi.o)
                0x0000120c                spi_restart_transmission
 .text.spi_init
                0x00001246       0x10 /home/defaultuser/nibolib/lib/libnibo2.a(spi.o)
                0x00001246                spi_init
 .text.__vector_17
                0x00001256      0x12e /home/defaultuser/nibolib/lib/libnibo2.a(spi.o)
                0x00001256                __vector_17
 .text.gfx_get_x
                0x00001384        0x6 /home/defaultuser/nibolib/lib/libnibo2.a(gfx.o)
                0x00001384                gfx_get_x
 .text.gfx_get_y
                0x0000138a        0x6 /home/defaultuser/nibolib/lib/libnibo2.a(gfx.o)
                0x0000138a                gfx_get_y
 .text.gfx_draw_mode
                0x00001390        0x6 /home/defaultuser/nibolib/lib/libnibo2.a(gfx.o)
                0x00001390                gfx_draw_mode
 .text.gfx_char_width
                0x00001396       0x40 /home/defaultuser/nibolib/lib/libnibo2.a(gfx.o)
                0x00001396                gfx_char_width
 .text.gfx_text_width
                0x000013d6       0x26 /home/defaultuser/nibolib/lib/libnibo2.a(gfx.o)
                0x000013d6                gfx_text_width
 .text.gfx_text_width_P
                0x000013fc       0x2e /home/defaultuser/nibolib/lib/libnibo2.a(gfx.o)
                0x000013fc                gfx_text_width_P
 .text.gfx_set_proportional
                0x0000142a        0x6 /home/defaultuser/nibolib/lib/libnibo2.a(gfx.o)
                0x0000142a                gfx_set_proportional
 .text.gfx_get_proportional
                0x00001430        0x6 /home/defaultuser/nibolib/lib/libnibo2.a(gfx.o)
                0x00001430                gfx_get_proportional
 .text.gfx_term_goto
                0x00001436       0x12 /home/defaultuser/nibolib/lib/libnibo2.a(gfx.o)
                0x00001436                gfx_term_goto
 .text.gfx_store_disp_tile
                0x00001448       0xae /home/defaultuser/nibolib/lib/libnibo2.a(gfx.o)
 .text.gfx_fill
                0x000014f6       0x74 /home/defaultuser/nibolib/lib/libnibo2.a(gfx.o)
                0x000014f6                gfx_fill
 .text.gfx_term_clear
                0x0000156a       0x10 /home/defaultuser/nibolib/lib/libnibo2.a(gfx.o)
                0x0000156a                gfx_term_clear
 .text.gfx_init
                0x0000157a       0x7e /home/defaultuser/nibolib/lib/libnibo2.a(gfx.o)
                0x0000157a                gfx_init
 .text.gfx_move
                0x000015f8       0x6a /home/defaultuser/nibolib/lib/libnibo2.a(gfx.o)
                0x000015f8                gfx_move
 .text.gfx_term_scroll
                0x00001662       0xe4 /home/defaultuser/nibolib/lib/libnibo2.a(gfx.o)
                0x00001662                gfx_term_scroll
 .text.gfx_display_write2
                0x00001746       0x90 /home/defaultuser/nibolib/lib/libnibo2.a(gfx.o)
                0x00001746                gfx_display_write2
 .text.gfx_pixel
                0x000017d6       0x26 /home/defaultuser/nibolib/lib/libnibo2.a(gfx.o)
                0x000017d6                gfx_pixel
 .text.gfx_draw_xbm_P
                0x000017fc      0x1a4 /home/defaultuser/nibolib/lib/libnibo2.a(gfx.o)
                0x000017fc                gfx_draw_xbm_P
 .text.gfx_draw_xbm
                0x000019a0      0x1a4 /home/defaultuser/nibolib/lib/libnibo2.a(gfx.o)
                0x000019a0                gfx_draw_xbm
 .text.gfx_box  0x00001b44       0x9a /home/defaultuser/nibolib/lib/libnibo2.a(gfx.o)
                0x00001b44                gfx_box
 .text.gfx_vline
                0x00001bde        0xa /home/defaultuser/nibolib/lib/libnibo2.a(gfx.o)
                0x00001bde                gfx_vline
 .text.gfx_hline
                0x00001be8       0x30 /home/defaultuser/nibolib/lib/libnibo2.a(gfx.o)
                0x00001be8                gfx_hline
 .text.gfx_lineTo
                0x00001c18      0x112 /home/defaultuser/nibolib/lib/libnibo2.a(gfx.o)
                0x00001c18                gfx_lineTo
 .text.gfx_print_char_base
                0x00001d2a       0xe0 /home/defaultuser/nibolib/lib/libnibo2.a(gfx.o)
                0x00001d2a                gfx_print_char_base
 .text.gfx_print_char
                0x00001e0a       0x48 /home/defaultuser/nibolib/lib/libnibo2.a(gfx.o)
                0x00001e0a                gfx_print_char
 .text.gfx_term_print
                0x00001e52       0x88 /home/defaultuser/nibolib/lib/libnibo2.a(gfx.o)
                0x00001e52                gfx_term_print
 .text.gfx_print_text_P
                0x00001eda       0x22 /home/defaultuser/nibolib/lib/libnibo2.a(gfx.o)
                0x00001eda                gfx_print_text_P
 .text.gfx_print_text
                0x00001efc       0x1a /home/defaultuser/nibolib/lib/libnibo2.a(gfx.o)
                0x00001efc                gfx_print_text
 .text._copro_check_busy
                0x00001f16       0x26 /home/defaultuser/nibolib/lib/libnibo2.a(copro.o)
                0x00001f16                _copro_check_busy
 .text.copro_update
                0x00001f3c      0x138 /home/defaultuser/nibolib/lib/libnibo2.a(copro.o)
                0x00001f3c                copro_update
 .text.copro_stop
                0x00002074        0xc /home/defaultuser/nibolib/lib/libnibo2.a(copro.o)
                0x00002074                copro_stop
 .text.copro_stopImmediate
                0x00002080        0xe /home/defaultuser/nibolib/lib/libnibo2.a(copro.o)
                0x00002080                copro_stopImmediate
 .text.copro_setPWM
                0x0000208e       0x1e /home/defaultuser/nibolib/lib/libnibo2.a(copro.o)
                0x0000208e                copro_setPWM
 .text.copro_setSpeed
                0x000020ac       0x1e /home/defaultuser/nibolib/lib/libnibo2.a(copro.o)
                0x000020ac                copro_setSpeed
 .text.copro_setTargetAbs
                0x000020ca       0x42 /home/defaultuser/nibolib/lib/libnibo2.a(copro.o)
                0x000020ca                copro_setTargetAbs
 .text.copro_setTargetRel
                0x0000210c       0x26 /home/defaultuser/nibolib/lib/libnibo2.a(copro.o)
                0x0000210c                copro_setTargetRel
 .text.copro_setSpeedParameters
                0x00002132       0x2e /home/defaultuser/nibolib/lib/libnibo2.a(copro.o)
                0x00002132                copro_setSpeedParameters
 .text.copro_setPositionParameters
                0x00002160        0x4 /home/defaultuser/nibolib/lib/libnibo2.a(copro.o)
                0x00002160                copro_setPositionParameters
 .text.copro_resetOdometry
                0x00002164       0x54 /home/defaultuser/nibolib/lib/libnibo2.a(copro.o)
                0x00002164                copro_resetOdometry
 .text.copro_ir_stop
                0x000021b8       0x20 /home/defaultuser/nibolib/lib/libnibo2.a(copro.o)
                0x000021b8                copro_ir_stop
 .text.copro_ir_startMeasure
                0x000021d8       0x20 /home/defaultuser/nibolib/lib/libnibo2.a(copro.o)
                0x000021d8                copro_ir_startMeasure
 .text.copro_transmitRC5
                0x000021f8       0x2a /home/defaultuser/nibolib/lib/libnibo2.a(copro.o)
                0x000021f8                copro_transmitRC5
 .text.spi_finished_callback
                0x00002222       0xac /home/defaultuser/nibolib/lib/libnibo2.a(copro.o)
                0x00002222                spi_finished_callback
 .text.bot_update
                0x000022ce       0x10 /home/defaultuser/nibolib/lib/libnibo2.a(bot.o)
                0x000022ce                bot_update
 .text.bot_init
                0x000022de       0x18 /home/defaultuser/nibolib/lib/libnibo2.a(bot.o)
                0x000022de                bot_init
 .text.leds_init
                0x000022f6       0x10 /home/defaultuser/nibolib/lib/libnibo2.a(leds.o)
                0x000022f6                leds_init
 .text.leds_set_status
                0x00002306       0x66 /home/defaultuser/nibolib/lib/libnibo2.a(leds.o)
                0x00002306                leds_set_status
 .text.leds_set_status_intensity
                0x0000236c        0xa /home/defaultuser/nibolib/lib/libnibo2.a(leds.o)
                0x0000236c                leds_set_status_intensity
 .text.leds_get_status_intensity
                0x00002376        0xa /home/defaultuser/nibolib/lib/libnibo2.a(leds.o)
                0x00002376                leds_get_status_intensity
 .text.leds_set_headlights
                0x00002380        0xa /home/defaultuser/nibolib/lib/libnibo2.a(leds.o)
                0x00002380                leds_set_headlights
 .text.leds_get_headlights
                0x0000238a        0xa /home/defaultuser/nibolib/lib/libnibo2.a(leds.o)
                0x0000238a                leds_get_headlights
 .text.leds_set_displaylight
                0x00002394        0xa /home/defaultuser/nibolib/lib/libnibo2.a(leds.o)
                0x00002394                leds_set_displaylight
 .text.leds_get_displaylight
                0x0000239e        0xa /home/defaultuser/nibolib/lib/libnibo2.a(leds.o)
                0x0000239e                leds_get_displaylight
 .text.sound_init
                0x000023a8        0x4 /home/defaultuser/nibolib/lib/libnibo2.a(sound.o)
                0x000023a8                sound_init
 .text.sound_tone
                0x000023ac       0x50 /home/defaultuser/nibolib/lib/libnibo2.a(sound.o)
                0x000023ac                sound_tone
 .text.pwm_init
                0x000023fc       0x64 /home/defaultuser/nibolib/lib/libnibo2.a(pwm.o)
                0x000023fc                pwm_init
 .text.__vector_14
                0x00002460      0x108 /home/defaultuser/nibolib/lib/libnibo2.a(pwm.o)
                0x00002460                __vector_14
 .text.adc_init
                0x00002568       0x26 /home/defaultuser/nibolib/lib/libnibo2.a(adc.o)
                0x00002568                adc_init
 .text.adc_read
                0x0000258e       0x3c /home/defaultuser/nibolib/lib/libnibo2.a(adc.o)
                0x0000258e                adc_read
 .text.adc_get_random_seed
                0x000025ca        0xa /home/defaultuser/nibolib/lib/libnibo2.a(adc.o)
                0x000025ca                adc_get_random_seed
 .text.avr-libc.fplib
                0x000025d4        0xa /usr/lib/gcc/avr/4.3.4/../../../avr/lib/avr51/libm.a(addsf3.o)
                0x000025d4                __subsf3
                0x000025d6                __addsf3
 .text.avr-libc.fplib
                0x000025de       0xc0 /usr/lib/gcc/avr/4.3.4/../../../avr/lib/avr51/libm.a(addsf3x.o)
                0x000025f8                __addsf3x
 .text.avr-libc.fplib
                0x0000269e        0x8 /usr/lib/gcc/avr/4.3.4/../../../avr/lib/avr51/libm.a(cmpsf2.o)
                0x0000269e                __lesf2
                0x0000269e                __nesf2
                0x0000269e                __eqsf2
                0x0000269e                __cmpsf2
                0x0000269e                __ltsf2
 .text.avr-libc.fplib
                0x000026a6       0x7a /usr/lib/gcc/avr/4.3.4/../../../avr/lib/avr51/libm.a(floatsisf.o)
                0x000026a6                __floatunsisf
                0x000026aa                __floatsisf
 .text.avr-libc.fplib
                0x00002720       0x48 /usr/lib/gcc/avr/4.3.4/../../../avr/lib/avr51/libm.a(fp_cmp.o)
                0x00002720                __fp_cmp
 .text.avr-libc.fplib
                0x00002768        0xc /usr/lib/gcc/avr/4.3.4/../../../avr/lib/avr51/libm.a(fp_inf.o)
                0x00002768                __fp_inf
 .text.avr-libc.fplib
                0x00002774        0x6 /usr/lib/gcc/avr/4.3.4/../../../avr/lib/avr51/libm.a(fp_nan.o)
                0x00002774                __fp_nan
 .text.avr-libc.fplib
                0x0000277a        0xe /usr/lib/gcc/avr/4.3.4/../../../avr/lib/avr51/libm.a(fp_pscA.o)
                0x0000277a                __fp_pscA
 .text.avr-libc.fplib
                0x00002788        0xe /usr/lib/gcc/avr/4.3.4/../../../avr/lib/avr51/libm.a(fp_pscB.o)
                0x00002788                __fp_pscB
 .text.avr-libc.fplib
                0x00002796       0x22 /usr/lib/gcc/avr/4.3.4/../../../avr/lib/avr51/libm.a(fp_round.o)
                0x00002796                __fp_round
 .text.avr-libc.fplib
                0x000027b8       0x44 /usr/lib/gcc/avr/4.3.4/../../../avr/lib/avr51/libm.a(fp_split3.o)
                0x000027b8                __fp_split3
                0x000027c8                __fp_splitA
 .text.avr-libc.fplib
                0x000027fc        0xe /usr/lib/gcc/avr/4.3.4/../../../avr/lib/avr51/libm.a(fp_zero.o)
                0x000027fc                __fp_zero
                0x000027fe                __fp_szero
 .text.avr-libc.fplib
                0x0000280a        0x4 /usr/lib/gcc/avr/4.3.4/../../../avr/lib/avr51/libm.a(mulsf3.o)
                0x0000280a                __mulsf3
 .text.avr-libc.fplib
                0x0000280e       0xc2 /usr/lib/gcc/avr/4.3.4/../../../avr/lib/avr51/libm.a(mulsf3x.o)
                0x00002822                __mulsf3x
                0x00002826                __mulsf3_pse
 .text.avr-libc
                0x000028d0      0x764 /usr/lib/gcc/avr/4.3.4/../../../avr/lib/avr51/libprintf_flt.a(vfprintf_flt.o)
                0x000028d0                vfprintf
 .text.i2c_start_transmission
                0x00003034       0x4e /home/defaultuser/nibolib/lib/libnds3.a(i2cmaster.o)
                0x00003034                i2c_start_transmission
 .text.i2c_wait_transmission
                0x00003082       0x4c /home/defaultuser/nibolib/lib/libnds3.a(i2cmaster.o)
                0x00003082                i2c_wait_transmission
 .text.i2c_status
                0x000030ce        0x6 /home/defaultuser/nibolib/lib/libnds3.a(i2cmaster.o)
                0x000030ce                i2c_status
 .text.i2c_init
                0x000030d4       0x1e /home/defaultuser/nibolib/lib/libnds3.a(i2cmaster.o)
                0x000030d4                i2c_init
 .text.__vector_33
                0x000030f2      0x14c /home/defaultuser/nibolib/lib/libnds3.a(i2cmaster.o)
                0x000030f2                __vector_33
 .text.nds3_init
                0x0000323e        0x2 /home/defaultuser/nibolib/lib/libnds3.a(nds3.o)
                0x0000323e                nds3_init
 .text.nds3_transaction
                0x00003240       0x12 /home/defaultuser/nibolib/lib/libnds3.a(nds3.o)
 .text.nds3_distcalib_commit
                0x00003252       0x46 /home/defaultuser/nibolib/lib/libnds3.a(nds3.o)
                0x00003252                nds3_distcalib_commit
 .text.nds3_distcalib_update
                0x00003298       0x58 /home/defaultuser/nibolib/lib/libnds3.a(nds3.o)
                0x00003298                nds3_distcalib_update
 .text.nds3_servocalib_commit
                0x000032f0       0x46 /home/defaultuser/nibolib/lib/libnds3.a(nds3.o)
                0x000032f0                nds3_servocalib_commit
 .text.nds3_servocalib_update
                0x00003336       0x58 /home/defaultuser/nibolib/lib/libnds3.a(nds3.o)
                0x00003336                nds3_servocalib_update
 .text.nds3_move_servo
                0x0000338e       0x1e /home/defaultuser/nibolib/lib/libnds3.a(nds3.o)
                0x0000338e                nds3_move_servo
 .text.nds3_get_analog
                0x000033ac       0x2a /home/defaultuser/nibolib/lib/libnds3.a(nds3.o)
                0x000033ac                nds3_get_analog
 .text.nds3_pin_update
                0x000033d6       0x1e /home/defaultuser/nibolib/lib/libnds3.a(nds3.o)
                0x000033d6                nds3_pin_update
 .text.nds3_port_commit
                0x000033f4       0x1e /home/defaultuser/nibolib/lib/libnds3.a(nds3.o)
                0x000033f4                nds3_port_commit
 .text.nds3_ddr_commit
                0x00003412       0x1e /home/defaultuser/nibolib/lib/libnds3.a(nds3.o)
                0x00003412                nds3_ddr_commit
 .text.nds3_get_busy
                0x00003430       0x1a /home/defaultuser/nibolib/lib/libnds3.a(nds3.o)
                0x00003430                nds3_get_busy
 .text.nds3_get_dist
                0x0000344a       0x1a /home/defaultuser/nibolib/lib/libnds3.a(nds3.o)
                0x0000344a                nds3_get_dist
 .text.nds3_get_pos
                0x00003464       0x1a /home/defaultuser/nibolib/lib/libnds3.a(nds3.o)
                0x00003464                nds3_get_pos
 .text.nds3_read
                0x0000347e       0x4a /home/defaultuser/nibolib/lib/libnds3.a(nds3.o)
                0x0000347e                nds3_read
 .text.nds3_measure
                0x000034c8       0x1e /home/defaultuser/nibolib/lib/libnds3.a(nds3.o)
                0x000034c8                nds3_measure
 .text.nds3_move
                0x000034e6       0x1a /home/defaultuser/nibolib/lib/libnds3.a(nds3.o)
                0x000034e6                nds3_move
 .text.nds3_reset
                0x00003500       0x14 /home/defaultuser/nibolib/lib/libnds3.a(nds3.o)
                0x00003500                nds3_reset
 .text.libgcc   0x00003514       0x18 /usr/lib/gcc/avr/4.3.4/avr51/libgcc.a(_udivmodqi4.o)
                0x00003514                __udivmodqi4
 .text.libgcc   0x0000352c       0x26 /usr/lib/gcc/avr/4.3.4/avr51/libgcc.a(_divmodhi4.o)
                0x0000352c                __divmodhi4
                0x0000352c                _div
 .text.libgcc   0x00003552       0x44 /usr/lib/gcc/avr/4.3.4/avr51/libgcc.a(_udivmodsi4.o)
                0x00003552                __udivmodsi4
 .text.libgcc   0x00003596       0x36 /usr/lib/gcc/avr/4.3.4/avr51/libgcc.a(_divmodsi4.o)
                0x00003596                __divmodsi4
 .text.libgcc   0x000035cc        0x0 /usr/lib/gcc/avr/4.3.4/avr51/libgcc.a(_exit.o)
 .text.libgcc   0x000035cc        0x0 /usr/lib/gcc/avr/4.3.4/avr51/libgcc.a(_clear_bss.o)
 .text.libgcc   0x000035cc       0x28 /usr/lib/gcc/avr/4.3.4/avr51/libgcc.a(_udivmodhi4.o)
                0x000035cc                __udivmodhi4
 .text.avr-libc
                0x000035f4      0x1b0 /usr/lib/gcc/avr/4.3.4/../../../avr/lib/avr51/libc.a(ftoa_engine.o)
                0x000035f4                __ftoa_engine
 .text.avr-libc
                0x000037a4       0x16 /usr/lib/gcc/avr/4.3.4/../../../avr/lib/avr51/libc.a(strnlen_P.o)
                0x000037a4                strnlen_P
 .text.avr-libc
                0x000037ba        0xe /usr/lib/gcc/avr/4.3.4/../../../avr/lib/avr51/libc.a(strcpy.o)
                0x000037ba                strcpy
 .text.avr-libc
                0x000037c8       0x16 /usr/lib/gcc/avr/4.3.4/../../../avr/lib/avr51/libc.a(strnlen.o)
                0x000037c8                strnlen
 .text.avr-libc
                0x000037de       0x58 /usr/lib/gcc/avr/4.3.4/../../../avr/lib/avr51/libc.a(fputc.o)
                0x000037de                fputc
 .text.avr-libc
                0x00003836       0x62 /usr/lib/gcc/avr/4.3.4/../../../avr/lib/avr51/libc.a(sprintf.o)
                0x00003836                sprintf
 .text.avr-libc
                0x00003898       0xbc /usr/lib/gcc/avr/4.3.4/../../../avr/lib/avr51/libc.a(ultoa_invert.o)
                0x00003898                __ultoa_invert
                0x00003954                . = ALIGN (0x2)
 *(.fini9)
 .fini9         0x00003954        0x0 /usr/lib/gcc/avr/4.3.4/avr51/libgcc.a(_exit.o)
                0x00003954                exit
                0x00003954                _exit
 *(.fini9)
 *(.fini8)
 *(.fini8)
 *(.fini7)
 *(.fini7)
 *(.fini6)
 *(.fini6)
 *(.fini5)
 *(.fini5)
 *(.fini4)
 *(.fini4)
 *(.fini3)
 *(.fini3)
 *(.fini2)
 *(.fini2)
 *(.fini1)
 *(.fini1)
 *(.fini0)
 .fini0         0x00003954        0x4 /usr/lib/gcc/avr/4.3.4/avr51/libgcc.a(_exit.o)
 *(.fini0)
                0x00003958                _etext = .

.data           0x00800100      0x37e load address 0x00003958
                0x00800100                PROVIDE (__data_start, .)
 *(.data)
 .data          0x00800100        0x0 /usr/lib/gcc/avr/4.3.4/../../../avr/lib/avr51/crtm128.o
 .data          0x00800100        0x0 ./src/xbee/niboCom.o
 .data          0x00800100        0x0 ./src/xbee/uart0.o
 .data          0x00800100        0x0 ./src/sound/n2sound.o
 .data          0x00800100        0x0 ./src/nds3/ndsScan.o
 .data          0x00800100       0x93 ./src/main.o
 .data          0x00800193        0x0 ./src/drive/drive.o
 .data          0x00800193       0xab ./src/display/advDisplay.o
                0x008001da                terminal_text
 .data          0x0080023e        0x0 /home/defaultuser/nibolib/lib/libnibo2.a(display.o)
 .data          0x0080023e        0x0 /home/defaultuser/nibolib/lib/libnibo2.a(delay.o)
 .data          0x0080023e        0x0 /home/defaultuser/nibolib/lib/libnibo2.a(spi.o)
 .data          0x0080023e      0x240 /home/defaultuser/nibolib/lib/libnibo2.a(gfx.o)
                0x0080023e                fontTiles
 .data          0x0080047e        0x0 /home/defaultuser/nibolib/lib/libnibo2.a(copro.o)
 .data          0x0080047e        0x0 /home/defaultuser/nibolib/lib/libnibo2.a(bot.o)
 .data          0x0080047e        0x0 /home/defaultuser/nibolib/lib/libnibo2.a(leds.o)
 .data          0x0080047e        0x0 /home/defaultuser/nibolib/lib/libnibo2.a(sound.o)
 .data          0x0080047e        0x0 /home/defaultuser/nibolib/lib/libnibo2.a(pwm.o)
 .data          0x0080047e        0x0 /home/defaultuser/nibolib/lib/libnibo2.a(adc.o)
 .data          0x0080047e        0x0 /usr/lib/gcc/avr/4.3.4/../../../avr/lib/avr51/libm.a(addsf3.o)
 .data          0x0080047e        0x0 /usr/lib/gcc/avr/4.3.4/../../../avr/lib/avr51/libm.a(addsf3x.o)
 .data          0x0080047e        0x0 /usr/lib/gcc/avr/4.3.4/../../../avr/lib/avr51/libm.a(cmpsf2.o)
 .data          0x0080047e        0x0 /usr/lib/gcc/avr/4.3.4/../../../avr/lib/avr51/libm.a(floatsisf.o)
 .data          0x0080047e        0x0 /usr/lib/gcc/avr/4.3.4/../../../avr/lib/avr51/libm.a(fp_cmp.o)
 .data          0x0080047e        0x0 /usr/lib/gcc/avr/4.3.4/../../../avr/lib/avr51/libm.a(fp_inf.o)
 .data          0x0080047e        0x0 /usr/lib/gcc/avr/4.3.4/../../../avr/lib/avr51/libm.a(fp_nan.o)
 .data          0x0080047e        0x0 /usr/lib/gcc/avr/4.3.4/../../../avr/lib/avr51/libm.a(fp_pscA.o)
 .data          0x0080047e        0x0 /usr/lib/gcc/avr/4.3.4/../../../avr/lib/avr51/libm.a(fp_pscB.o)
 .data          0x0080047e        0x0 /usr/lib/gcc/avr/4.3.4/../../../avr/lib/avr51/libm.a(fp_round.o)
 .data          0x0080047e        0x0 /usr/lib/gcc/avr/4.3.4/../../../avr/lib/avr51/libm.a(fp_split3.o)
 .data          0x0080047e        0x0 /usr/lib/gcc/avr/4.3.4/../../../avr/lib/avr51/libm.a(fp_zero.o)
 .data          0x0080047e        0x0 /usr/lib/gcc/avr/4.3.4/../../../avr/lib/avr51/libm.a(mulsf3.o)
 .data          0x0080047e        0x0 /usr/lib/gcc/avr/4.3.4/../../../avr/lib/avr51/libm.a(mulsf3x.o)
 .data          0x0080047e        0x0 /usr/lib/gcc/avr/4.3.4/../../../avr/lib/avr51/libprintf_flt.a(vfprintf_flt.o)
 .data          0x0080047e        0x0 /home/defaultuser/nibolib/lib/libnds3.a(i2cmaster.o)
 .data          0x0080047e        0x0 /home/defaultuser/nibolib/lib/libnds3.a(nds3.o)
 .data          0x0080047e        0x0 /usr/lib/gcc/avr/4.3.4/avr51/libgcc.a(_udivmodqi4.o)
 .data          0x0080047e        0x0 /usr/lib/gcc/avr/4.3.4/avr51/libgcc.a(_divmodhi4.o)
 .data          0x0080047e        0x0 /usr/lib/gcc/avr/4.3.4/avr51/libgcc.a(_udivmodsi4.o)
 .data          0x0080047e        0x0 /usr/lib/gcc/avr/4.3.4/avr51/libgcc.a(_divmodsi4.o)
 .data          0x0080047e        0x0 /usr/lib/gcc/avr/4.3.4/avr51/libgcc.a(_exit.o)
 .data          0x0080047e        0x0 /usr/lib/gcc/avr/4.3.4/avr51/libgcc.a(_clear_bss.o)
 .data          0x0080047e        0x0 /usr/lib/gcc/avr/4.3.4/avr51/libgcc.a(_udivmodhi4.o)
 .data          0x0080047e        0x0 /usr/lib/gcc/avr/4.3.4/../../../avr/lib/avr51/libc.a(ftoa_engine.o)
 .data          0x0080047e        0x0 /usr/lib/gcc/avr/4.3.4/../../../avr/lib/avr51/libc.a(strnlen_P.o)
 .data          0x0080047e        0x0 /usr/lib/gcc/avr/4.3.4/../../../avr/lib/avr51/libc.a(strcpy.o)
 .data          0x0080047e        0x0 /usr/lib/gcc/avr/4.3.4/../../../avr/lib/avr51/libc.a(strnlen.o)
 .data          0x0080047e        0x0 /usr/lib/gcc/avr/4.3.4/../../../avr/lib/avr51/libc.a(fputc.o)
 .data          0x0080047e        0x0 /usr/lib/gcc/avr/4.3.4/../../../avr/lib/avr51/libc.a(sprintf.o)
 .data          0x0080047e        0x0 /usr/lib/gcc/avr/4.3.4/../../../avr/lib/avr51/libc.a(ultoa_invert.o)
 *(.data*)
 *(.rodata)
 *(.rodata*)
 *(.gnu.linkonce.d*)
                0x0080047e                . = ALIGN (0x2)
                0x0080047e                _edata = .
                0x0080047e                PROVIDE (__data_end, .)

.bss            0x0080047e      0x362
                0x0080047e                PROVIDE (__bss_start, .)
 *(.bss)
 .bss           0x0080047e        0x0 /usr/lib/gcc/avr/4.3.4/../../../avr/lib/avr51/crtm128.o
 .bss           0x0080047e        0x3 ./src/xbee/niboCom.o
                0x0080047e                startSignReceived
                0x0080047f                lastCMD
                0x00800480                bufferPos
 .bss           0x00800481        0x0 ./src/xbee/uart0.o
 .bss           0x00800481        0x0 ./src/sound/n2sound.o
 .bss           0x00800481       0xb4 ./src/nds3/ndsScan.o
 .bss           0x00800535        0x3 ./src/main.o
                0x00800535                voltageCheck
                0x00800537                mode
 .bss           0x00800538        0x0 ./src/drive/drive.o
 .bss           0x00800538        0x4 ./src/display/advDisplay.o
                0x00800538                terminal_head
                0x0080053a                terminal_count
 .bss           0x0080053c        0x0 /home/defaultuser/nibolib/lib/libnibo2.a(display.o)
 .bss           0x0080053c        0x0 /home/defaultuser/nibolib/lib/libnibo2.a(delay.o)
 .bss           0x0080053c        0x0 /home/defaultuser/nibolib/lib/libnibo2.a(spi.o)
 .bss           0x0080053c        0x0 /home/defaultuser/nibolib/lib/libnibo2.a(gfx.o)
 .bss           0x0080053c        0x0 /home/defaultuser/nibolib/lib/libnibo2.a(copro.o)
 .bss           0x0080053c        0x0 /home/defaultuser/nibolib/lib/libnibo2.a(bot.o)
 .bss           0x0080053c        0x0 /home/defaultuser/nibolib/lib/libnibo2.a(leds.o)
 .bss           0x0080053c        0x0 /home/defaultuser/nibolib/lib/libnibo2.a(sound.o)
 .bss           0x0080053c        0x0 /home/defaultuser/nibolib/lib/libnibo2.a(pwm.o)
 .bss           0x0080053c        0x0 /home/defaultuser/nibolib/lib/libnibo2.a(adc.o)
 .bss           0x0080053c        0x0 /usr/lib/gcc/avr/4.3.4/../../../avr/lib/avr51/libm.a(addsf3.o)
 .bss           0x0080053c        0x0 /usr/lib/gcc/avr/4.3.4/../../../avr/lib/avr51/libm.a(addsf3x.o)
 .bss           0x0080053c        0x0 /usr/lib/gcc/avr/4.3.4/../../../avr/lib/avr51/libm.a(cmpsf2.o)
 .bss           0x0080053c        0x0 /usr/lib/gcc/avr/4.3.4/../../../avr/lib/avr51/libm.a(floatsisf.o)
 .bss           0x0080053c        0x0 /usr/lib/gcc/avr/4.3.4/../../../avr/lib/avr51/libm.a(fp_cmp.o)
 .bss           0x0080053c        0x0 /usr/lib/gcc/avr/4.3.4/../../../avr/lib/avr51/libm.a(fp_inf.o)
 .bss           0x0080053c        0x0 /usr/lib/gcc/avr/4.3.4/../../../avr/lib/avr51/libm.a(fp_nan.o)
 .bss           0x0080053c        0x0 /usr/lib/gcc/avr/4.3.4/../../../avr/lib/avr51/libm.a(fp_pscA.o)
 .bss           0x0080053c        0x0 /usr/lib/gcc/avr/4.3.4/../../../avr/lib/avr51/libm.a(fp_pscB.o)
 .bss           0x0080053c        0x0 /usr/lib/gcc/avr/4.3.4/../../../avr/lib/avr51/libm.a(fp_round.o)
 .bss           0x0080053c        0x0 /usr/lib/gcc/avr/4.3.4/../../../avr/lib/avr51/libm.a(fp_split3.o)
 .bss           0x0080053c        0x0 /usr/lib/gcc/avr/4.3.4/../../../avr/lib/avr51/libm.a(fp_zero.o)
 .bss           0x0080053c        0x0 /usr/lib/gcc/avr/4.3.4/../../../avr/lib/avr51/libm.a(mulsf3.o)
 .bss           0x0080053c        0x0 /usr/lib/gcc/avr/4.3.4/../../../avr/lib/avr51/libm.a(mulsf3x.o)
 .bss           0x0080053c        0x0 /usr/lib/gcc/avr/4.3.4/../../../avr/lib/avr51/libprintf_flt.a(vfprintf_flt.o)
 .bss           0x0080053c        0x0 /home/defaultuser/nibolib/lib/libnds3.a(i2cmaster.o)
 .bss           0x0080053c        0x0 /home/defaultuser/nibolib/lib/libnds3.a(nds3.o)
 .bss           0x0080053c        0x0 /usr/lib/gcc/avr/4.3.4/avr51/libgcc.a(_udivmodqi4.o)
 .bss           0x0080053c        0x0 /usr/lib/gcc/avr/4.3.4/avr51/libgcc.a(_divmodhi4.o)
 .bss           0x0080053c        0x0 /usr/lib/gcc/avr/4.3.4/avr51/libgcc.a(_udivmodsi4.o)
 .bss           0x0080053c        0x0 /usr/lib/gcc/avr/4.3.4/avr51/libgcc.a(_divmodsi4.o)
 .bss           0x0080053c        0x0 /usr/lib/gcc/avr/4.3.4/avr51/libgcc.a(_exit.o)
 .bss           0x0080053c        0x0 /usr/lib/gcc/avr/4.3.4/avr51/libgcc.a(_clear_bss.o)
 .bss           0x0080053c        0x0 /usr/lib/gcc/avr/4.3.4/avr51/libgcc.a(_udivmodhi4.o)
 .bss           0x0080053c        0x0 /usr/lib/gcc/avr/4.3.4/../../../avr/lib/avr51/libc.a(ftoa_engine.o)
 .bss           0x0080053c        0x0 /usr/lib/gcc/avr/4.3.4/../../../avr/lib/avr51/libc.a(strnlen_P.o)
 .bss           0x0080053c        0x0 /usr/lib/gcc/avr/4.3.4/../../../avr/lib/avr51/libc.a(strcpy.o)
 .bss           0x0080053c        0x0 /usr/lib/gcc/avr/4.3.4/../../../avr/lib/avr51/libc.a(strnlen.o)
 .bss           0x0080053c        0x0 /usr/lib/gcc/avr/4.3.4/../../../avr/lib/avr51/libc.a(fputc.o)
 .bss           0x0080053c        0x0 /usr/lib/gcc/avr/4.3.4/../../../avr/lib/avr51/libc.a(sprintf.o)
 .bss           0x0080053c        0x0 /usr/lib/gcc/avr/4.3.4/../../../avr/lib/avr51/libc.a(ultoa_invert.o)
 *(.bss*)
 *(COMMON)
 COMMON         0x0080053c        0xa ./src/xbee/niboCom.o
                0x0080053c                buffer
 COMMON         0x00800546       0xfe ./src/xbee/uart0.o
                0x00800546                uart0_txbuf_begin
                0x00800547                uart0_rxbuf
                0x00800579                uart0_txbuf
                0x00800641                uart0_rxbuf_begin
                0x00800642                uart0_rxbuf_end
                0x00800643                uart0_txbuf_end
 COMMON         0x00800644        0x2 ./src/main.o
                0x00800644                nds_scan
 COMMON         0x00800646        0x1 /home/defaultuser/nibolib/lib/libnibo2.a(display.o)
                0x00800646                display_type
 COMMON         0x00800647       0x3e /home/defaultuser/nibolib/lib/libnibo2.a(spi.o)
                0x00800647                spi_tx_buf
                0x00800662                spi_rx_size
                0x00800663                spi_err_cnt
                0x00800664                spi_tx_size
                0x00800665                spi_frame_cnt
                0x00800666                spi_size
                0x00800667                spi_rx_buf
                0x00800682                spi_tx_chk
                0x00800683                spi_pos
                0x00800684                spi_rx_chk
 COMMON         0x00800685        0xe /home/defaultuser/nibolib/lib/libnibo2.a(gfx.o)
                0x00800685                gfx_dm
                0x00800686                gfx_term_row
                0x00800687                gfx_proportional
                0x00800688                gfx_x
                0x00800689                gfx_tile
                0x00800691                gfx_y
                0x00800692                gfx_term_col
 COMMON         0x00800693       0x5d /home/defaultuser/nibolib/lib/libnibo2.a(copro.o)
                0x00800693                copro_ticks_offset_r
                0x00800695                copro_ticks_offset_l
                0x00800697                copro_current_l
                0x00800699                copro_commands
                0x008006ae                copro_ticks_l
                0x008006b0                copro_rc5_cmd
                0x008006b2                copro_distance
                0x008006bc                copro_pos_x
                0x008006c0                copro_pos_ori
                0x008006c4                copro_speed_r
                0x008006c6                copro_ticks_r
                0x008006c8                copro_pos_y
                0x008006cc                copro_ir_mode
                0x008006cd                copro_rc5_count
                0x008006ce                copro_current_r
                0x008006d0                copro_buffer
                0x008006eb                copro_target_distance
                0x008006ed                copro_seq
                0x008006ee                copro_speed_l
 COMMON         0x008006f0        0x2 /home/defaultuser/nibolib/lib/libnibo2.a(bot.o)
                0x008006f0                bot_supply
 COMMON         0x008006f2        0xe /home/defaultuser/nibolib/lib/libnibo2.a(pwm.o)
                0x008006f2                pwm_channel_A
                0x008006f4                pwm_channel_B
                0x008006f6                pwm_timer_ms
                0x008006f8                pwm_channel_C
                0x008006fa                pwm_timer_sub
                0x008006fc                pwm_timer_sec
 COMMON         0x00800700        0x2 /home/defaultuser/nibolib/lib/libnibo2.a(adc.o)
                0x00800700                adc_random_seed
 COMMON         0x00800702       0x1a /home/defaultuser/nibolib/lib/libnds3.a(i2cmaster.o)
                0x00800702                i2c_buf
                0x00800716                i2c_state
                0x00800717                i2c_size
                0x00800718                i2c_last_TWSR
                0x00800719                i2c_tx_size
                0x0080071a                i2c_pos
                0x0080071b                i2c_rx_size
 COMMON         0x0080071c       0xc4 /home/defaultuser/nibolib/lib/libnds3.a(nds3.o)
                0x0080071c                nds3_distcalib_alpha
                0x0080071e                nds3_servocalib_mid
                0x00800720                nds3_pin
                0x00800721                nds3_ddr
                0x00800722                nds3_distances
                0x008007d7                nds3_port
                0x008007d8                nds3_servocalib_lo
                0x008007da                nds3_distcalib_v0
                0x008007dc                nds3_distcalib_d0
                0x008007de                nds3_servocalib_hi
                0x008007e0                PROVIDE (__bss_end, .)
                0x00003958                __data_load_start = LOADADDR (.data)
                0x00003cd6                __data_load_end = (__data_load_start + SIZEOF (.data))

.noinit         0x008007e0        0x0
                0x008007e0                PROVIDE (__noinit_start, .)
 *(.noinit*)
                0x008007e0                PROVIDE (__noinit_end, .)
                0x008007e0                _end = .
                0x008007e0                PROVIDE (__heap_start, .)

.eeprom         0x00810000        0x0
 *(.eeprom*)
                0x00810000                __eeprom_end = .

.fuse
 *(.fuse)
 *(.lfuse)
 *(.hfuse)
 *(.efuse)

.lock
 *(.lock*)

.signature
 *(.signature*)

.stab           0x00000000     0x64e0
 *(.stab)
 .stab          0x00000000      0x750 /usr/lib/gcc/avr/4.3.4/../../../avr/lib/avr51/crtm128.o
 .stab          0x00000750      0x714 ./src/xbee/niboCom.o
                                0x720 (size before relaxing)
 .stab          0x00000e64      0x4e0 ./src/xbee/uart0.o
                                0x6a8 (size before relaxing)
 .stab          0x00001344      0x318 ./src/sound/n2sound.o
                                0x4c8 (size before relaxing)
 .stab          0x0000165c      0x2c4 ./src/nds3/ndsScan.o
                                0x534 (size before relaxing)
 .stab          0x00001920      0x948 ./src/main.o
                                0xc00 (size before relaxing)
 .stab          0x00002268      0x528 ./src/drive/drive.o
                                0x7c8 (size before relaxing)
 .stab          0x00002790      0x420 ./src/display/advDisplay.o
                                0x6d8 (size before relaxing)
 .stab          0x00002bb0       0x78 /usr/lib/gcc/avr/4.3.4/../../../avr/lib/avr51/libm.a(addsf3.o)
                                 0x84 (size before relaxing)
 .stab          0x00002c28      0x4bc /usr/lib/gcc/avr/4.3.4/../../../avr/lib/avr51/libm.a(addsf3x.o)
                                0x4c8 (size before relaxing)
 .stab          0x000030e4       0x90 /usr/lib/gcc/avr/4.3.4/../../../avr/lib/avr51/libm.a(cmpsf2.o)
                                 0x9c (size before relaxing)
 .stab          0x00003174      0x318 /usr/lib/gcc/avr/4.3.4/../../../avr/lib/avr51/libm.a(floatsisf.o)
                                0x324 (size before relaxing)
 .stab          0x0000348c      0x1e0 /usr/lib/gcc/avr/4.3.4/../../../avr/lib/avr51/libm.a(fp_cmp.o)
                                0x1ec (size before relaxing)
 .stab          0x0000366c       0x78 /usr/lib/gcc/avr/4.3.4/../../../avr/lib/avr51/libm.a(fp_inf.o)
                                 0x84 (size before relaxing)
 .stab          0x000036e4       0x54 /usr/lib/gcc/avr/4.3.4/../../../avr/lib/avr51/libm.a(fp_nan.o)
                                 0x60 (size before relaxing)
 .stab          0x00003738       0x84 /usr/lib/gcc/avr/4.3.4/../../../avr/lib/avr51/libm.a(fp_pscA.o)
                                 0x90 (size before relaxing)
 .stab          0x000037bc       0x84 /usr/lib/gcc/avr/4.3.4/../../../avr/lib/avr51/libm.a(fp_pscB.o)
                                 0x90 (size before relaxing)
 .stab          0x00003840       0xfc /usr/lib/gcc/avr/4.3.4/../../../avr/lib/avr51/libm.a(fp_round.o)
                                0x108 (size before relaxing)
 .stab          0x0000393c      0x1d4 /usr/lib/gcc/avr/4.3.4/../../../avr/lib/avr51/libm.a(fp_split3.o)
                                0x1e0 (size before relaxing)
 .stab          0x00003b10       0x90 /usr/lib/gcc/avr/4.3.4/../../../avr/lib/avr51/libm.a(fp_zero.o)
                                 0x9c (size before relaxing)
 .stab          0x00003ba0       0x48 /usr/lib/gcc/avr/4.3.4/../../../avr/lib/avr51/libm.a(mulsf3.o)
                                 0x54 (size before relaxing)
 .stab          0x00003be8      0x4d4 /usr/lib/gcc/avr/4.3.4/../../../avr/lib/avr51/libm.a(mulsf3x.o)
                                0x4e0 (size before relaxing)
 .stab          0x000040bc      0xffc /usr/lib/gcc/avr/4.3.4/../../../avr/lib/avr51/libprintf_flt.a(vfprintf_flt.o)
                               0x1044 (size before relaxing)
 .stab          0x000050b8      0xa38 /usr/lib/gcc/avr/4.3.4/../../../avr/lib/avr51/libc.a(ftoa_engine.o)
                                0xa44 (size before relaxing)
 .stab          0x00005af0       0x9c /usr/lib/gcc/avr/4.3.4/../../../avr/lib/avr51/libc.a(strnlen_P.o)
                                 0xa8 (size before relaxing)
 .stab          0x00005b8c       0x6c /usr/lib/gcc/avr/4.3.4/../../../avr/lib/avr51/libc.a(strcpy.o)
                                 0x78 (size before relaxing)
 .stab          0x00005bf8       0x9c /usr/lib/gcc/avr/4.3.4/../../../avr/lib/avr51/libc.a(strnlen.o)
                                 0xa8 (size before relaxing)
 .stab          0x00005c94      0x1d4 /usr/lib/gcc/avr/4.3.4/../../../avr/lib/avr51/libc.a(fputc.o)
                                0x3b4 (size before relaxing)
 .stab          0x00005e68      0x1f8 /usr/lib/gcc/avr/4.3.4/../../../avr/lib/avr51/libc.a(sprintf.o)
                                0x3d8 (size before relaxing)
 .stab          0x00006060      0x480 /usr/lib/gcc/avr/4.3.4/../../../avr/lib/avr51/libc.a(ultoa_invert.o)
                                0x48c (size before relaxing)

.stabstr        0x00000000     0x239f
 *(.stabstr)
 .stabstr       0x00000000     0x239f /usr/lib/gcc/avr/4.3.4/../../../avr/lib/avr51/crtm128.o

.stab.excl
 *(.stab.excl)

.stab.exclstr
 *(.stab.exclstr)

.stab.index
 *(.stab.index)

.stab.indexstr
 *(.stab.indexstr)

.comment
 *(.comment)

.debug
 *(.debug)

.line
 *(.line)

.debug_srcinfo
 *(.debug_srcinfo)

.debug_sfnames
 *(.debug_sfnames)

.debug_aranges
 *(.debug_aranges)

.debug_pubnames
 *(.debug_pubnames)

.debug_info
 *(.debug_info)
 *(.gnu.linkonce.wi.*)

.debug_abbrev
 *(.debug_abbrev)

.debug_line
 *(.debug_line)

.debug_frame
 *(.debug_frame)

.debug_str
 *(.debug_str)

.debug_loc
 *(.debug_loc)

.debug_macinfo
 *(.debug_macinfo)
OUTPUT(defaultCProject.elf elf32-avr)
LOAD linker stubs
