
defaultCProject.elf:     file format elf32-avr

Sections:
Idx Name          Size      VMA       LMA       File off  Algn
  0 .data         000002d0  00800100  00002fe6  0000307a  2**0
                  CONTENTS, ALLOC, LOAD, DATA
  1 .text         00002fe6  00000000  00000000  00000094  2**1
                  CONTENTS, ALLOC, LOAD, READONLY, CODE
  2 .bss          000000fc  008003d0  008003d0  0000334a  2**0
                  ALLOC
  3 .stab         000053f4  00000000  00000000  0000334c  2**2
                  CONTENTS, READONLY, DEBUGGING
  4 .stabstr      00001e68  00000000  00000000  00008740  2**0
                  CONTENTS, READONLY, DEBUGGING

Disassembly of section .text:

00000000 <__vectors>:
       0:	0c 94 9e 01 	jmp	0x33c	; 0x33c <__ctors_end>
       4:	0c 94 bd 01 	jmp	0x37a	; 0x37a <__bad_interrupt>
       8:	0c 94 bd 01 	jmp	0x37a	; 0x37a <__bad_interrupt>
       c:	0c 94 bd 01 	jmp	0x37a	; 0x37a <__bad_interrupt>
      10:	0c 94 bd 01 	jmp	0x37a	; 0x37a <__bad_interrupt>
      14:	0c 94 bd 01 	jmp	0x37a	; 0x37a <__bad_interrupt>
      18:	0c 94 bd 01 	jmp	0x37a	; 0x37a <__bad_interrupt>
      1c:	0c 94 bd 01 	jmp	0x37a	; 0x37a <__bad_interrupt>
      20:	0c 94 bd 01 	jmp	0x37a	; 0x37a <__bad_interrupt>
      24:	0c 94 bd 01 	jmp	0x37a	; 0x37a <__bad_interrupt>
      28:	0c 94 d9 04 	jmp	0x9b2	; 0x9b2 <__vector_10>
      2c:	0c 94 bd 01 	jmp	0x37a	; 0x37a <__bad_interrupt>
      30:	0c 94 bd 01 	jmp	0x37a	; 0x37a <__bad_interrupt>
      34:	0c 94 bd 01 	jmp	0x37a	; 0x37a <__bad_interrupt>
      38:	0c 94 2f 06 	jmp	0xc5e	; 0xc5e <__vector_14>
      3c:	0c 94 bd 01 	jmp	0x37a	; 0x37a <__bad_interrupt>
      40:	0c 94 bd 01 	jmp	0x37a	; 0x37a <__bad_interrupt>
      44:	0c 94 e2 06 	jmp	0xdc4	; 0xdc4 <__vector_17>
      48:	0c 94 12 03 	jmp	0x624	; 0x624 <__vector_18>
      4c:	0c 94 e3 02 	jmp	0x5c6	; 0x5c6 <__vector_19>
      50:	0c 94 bd 01 	jmp	0x37a	; 0x37a <__bad_interrupt>
      54:	0c 94 bd 01 	jmp	0x37a	; 0x37a <__bad_interrupt>
      58:	0c 94 bd 01 	jmp	0x37a	; 0x37a <__bad_interrupt>
      5c:	0c 94 bd 01 	jmp	0x37a	; 0x37a <__bad_interrupt>
      60:	0c 94 bd 01 	jmp	0x37a	; 0x37a <__bad_interrupt>
      64:	0c 94 bd 01 	jmp	0x37a	; 0x37a <__bad_interrupt>
      68:	0c 94 bd 01 	jmp	0x37a	; 0x37a <__bad_interrupt>
      6c:	0c 94 bd 01 	jmp	0x37a	; 0x37a <__bad_interrupt>
      70:	0c 94 bd 01 	jmp	0x37a	; 0x37a <__bad_interrupt>
      74:	0c 94 bd 01 	jmp	0x37a	; 0x37a <__bad_interrupt>
      78:	0c 94 bd 01 	jmp	0x37a	; 0x37a <__bad_interrupt>
      7c:	0c 94 bd 01 	jmp	0x37a	; 0x37a <__bad_interrupt>
      80:	0c 94 bd 01 	jmp	0x37a	; 0x37a <__bad_interrupt>
      84:	0c 94 52 15 	jmp	0x2aa4	; 0x2aa4 <__vector_33>
      88:	0c 94 bd 01 	jmp	0x37a	; 0x37a <__bad_interrupt>

0000008c <logo_bits>:
	...
      a8:	00 80 56 01 00 02 00 00 fe ff ff 03 03 00 c0 ff     ..V.............
      b8:	ff ff bf 01 00 e0 0f 00 c4 ff 01 00 e0 03 00 00     ................
      c8:	f0 03 00 e0 7f 00 00 e0 03 00 c0 fc ff ff ff 03     ................
      d8:	00 c0 81 ff ff bf 01 00 80 03 00 00 df 01 00 00     ................
      e8:	03 00 80 fb 00 00 00 07 00 c0 7f 00 00 00 0e 00     ................
      f8:	c0 3f 00 00 00 0c 00 e0 3f 00 00 00 1c 00 f8 0f     .?......?.......
     108:	00 00 00 38 00 dc 0e 00 00 00 70 00 fc 07 00 00     ...8......p.....
     118:	00 e0 00 fe 03 00 00 00 c0 80 ff 01 00 00 00 c0     ................
     128:	c1 ff 00 00 00 00 80 e3 3c 00 00 00 00 00 e7 3f     ........<......?
     138:	00 00 00 00 00 e6 0f 00 00 00 00 00 ee 07 00 00     ................
     148:	00 00 00 dc 07 00 00 00 00 00 b8 03 00 00 00 00     ................
     158:	00 f8 01 00 00 00 00 00 f0 01 00 00 00 00 00 f0     ................
     168:	00 00 00 00 00 00 f0 00 00 00 00 00 00 f0 00 00     ................
     178:	00 00 00 00 f0 00 00 00 00 00 00 f0 00 00 00 00     ................
     188:	00 00 f0 00 00 00 00 00 00 70 00 00 00 00 00 00     .........p......
     198:	e0 00 00 00 00 00 00 f0 00 00 00 00 00 00 f0 00     ................
     1a8:	00 00 00 00 00 70 00 00 00 00 00 00 e0 00 00 00     .....p..........
     1b8:	00 00 00 70 00 00 00 00 00 00 70 00 00 00 00 00     ...p......p.....
     1c8:	00 70 00 00 00 00 00 00 60 00 00 00 00 00 00 70     .p......`......p
     1d8:	00 00 00 00 00 00 70 00 00 00 00 00 00 60 00 00     ......p......`..
     1e8:	00 00 00 00 70 00 00 00 00 00 80 ff 07 00 00 00     ....p...........
     1f8:	00 f0 ff 3f 00 00 00 00 70 f8 7c 00 00 00 00 38     ...?....p.|....8
     208:	fc e1 00 00 00 00 f0 01 f8 00 00 00 00 e0 ff 7f     ................
     218:	00 00 00 00 00 ff 0f 00 00 00 00 00 00 00 00 00     ................
	...

00000230 <bot_lib_revision>:
     230:	31 36 33 00                                         163.

00000234 <bot_lib_version>:
     234:	32 2e 31 31 00                                      2.11.

00000239 <__c.1769>:
     239:	6e 61 6e 00                                         nan.

0000023d <__c.1767>:
     23d:	69 6e 66 00 00 40 7a 10 f3 5a 00 a0 72 4e 18 09     inf..@z..Z..rN..
     24d:	00 10 a5 d4 e8 00 00 e8 76 48 17 00 00 e4 0b 54     ........vH.....T
     25d:	02 00 00 ca 9a 3b 00 00 00 e1 f5 05 00 00 80 96     .....;..........
     26d:	98 00 00 00 40 42 0f 00 00 00 a0 86 01 00 00 00     ....@B..........
     27d:	10 27 00 00 00 00 e8 03 00 00 00 00 64 00 00 00     .'..........d...
     28d:	00 00 0a 00 00 00 00 00 01 00 00 00 00 00 2c 76     ..............,v
     29d:	d8 88 dc 67 4f 08 23 df c1 df ae 59 e1 b1 b7 96     ...gO.#....Y....
     2ad:	e5 e3 e4 53 c6 3a e6 51 99 76 96 e8 e6 c2 84 26     ...S.:.Q.v.....&
     2bd:	eb 89 8c 9b 62 ed 40 7c 6f fc ef bc 9c 9f 40 f2     ....b.@|o.....@.
     2cd:	ba a5 6f a5 f4 90 05 5a 2a f7 5c 93 6b 6c f9 67     ..o....Z*.\.kl.g
     2dd:	6d c1 1b fc e0 e4 0d 47 fe f5 20 e6 b5 00 d0 ed     m......G.. .....
     2ed:	90 2e 03 00 94 35 77 05 00 80 84 1e 08 00 00 20     .....5w........ 
     2fd:	4e 0a 00 00 00 c8 0c 33 33 33 33 0f 98 6e 12 83     N......3333..n..
     30d:	11 41 ef 8d 21 14 89 3b e6 55 16 cf fe e6 db 18     .A..!..;.U......
     31d:	d1 84 4b 38 1b f7 7c 1d 90 1d a4 bb e4 24 20 32     ..K8..|......$ 2
     32d:	84 72 5e 22 81 00 c9 f1 24 ec a1 e5 3d 27 00        .r^"....$...='.

0000033c <__ctors_end>:
     33c:	11 24       	eor	r1, r1
     33e:	1f be       	out	0x3f, r1	; 63
     340:	cf ef       	ldi	r28, 0xFF	; 255
     342:	d0 e1       	ldi	r29, 0x10	; 16
     344:	de bf       	out	0x3e, r29	; 62
     346:	cd bf       	out	0x3d, r28	; 61

00000348 <__do_copy_data>:
     348:	13 e0       	ldi	r17, 0x03	; 3
     34a:	a0 e0       	ldi	r26, 0x00	; 0
     34c:	b1 e0       	ldi	r27, 0x01	; 1
     34e:	e6 ee       	ldi	r30, 0xE6	; 230
     350:	ff e2       	ldi	r31, 0x2F	; 47
     352:	00 e0       	ldi	r16, 0x00	; 0
     354:	0b bf       	out	0x3b, r16	; 59
     356:	02 c0       	rjmp	.+4      	; 0x35c <__do_copy_data+0x14>
     358:	07 90       	elpm	r0, Z+
     35a:	0d 92       	st	X+, r0
     35c:	a0 3d       	cpi	r26, 0xD0	; 208
     35e:	b1 07       	cpc	r27, r17
     360:	d9 f7       	brne	.-10     	; 0x358 <__do_copy_data+0x10>

00000362 <__do_clear_bss>:
     362:	14 e0       	ldi	r17, 0x04	; 4
     364:	a0 ed       	ldi	r26, 0xD0	; 208
     366:	b3 e0       	ldi	r27, 0x03	; 3
     368:	01 c0       	rjmp	.+2      	; 0x36c <.do_clear_bss_start>

0000036a <.do_clear_bss_loop>:
     36a:	1d 92       	st	X+, r1

0000036c <.do_clear_bss_start>:
     36c:	ac 3c       	cpi	r26, 0xCC	; 204
     36e:	b1 07       	cpc	r27, r17
     370:	e1 f7       	brne	.-8      	; 0x36a <.do_clear_bss_loop>
     372:	0e 94 84 04 	call	0x908	; 0x908 <main>
     376:	0c 94 f1 17 	jmp	0x2fe2	; 0x2fe2 <_exit>

0000037a <__bad_interrupt>:
     37a:	0c 94 00 00 	jmp	0	; 0x0 <__vectors>

0000037e <niboCom_getCMD>:
}


uint8_t niboCom_getCMD(){

	if(autoMode == true) return niboCom_cmd_nibo_auto;
     37e:	80 91 d0 03 	lds	r24, 0x03D0
     382:	88 23       	and	r24, r24
     384:	11 f0       	breq	.+4      	; 0x38a <niboCom_getCMD+0xc>
     386:	81 e0       	ldi	r24, 0x01	; 1
     388:	08 95       	ret

	uint8_t tmp = lastCMD;
     38a:	80 91 d2 03 	lds	r24, 0x03D2
	if(tmp != niboCom_cmd_none){
     38e:	88 23       	and	r24, r24
     390:	11 f4       	brne	.+4      	; 0x396 <niboCom_getCMD+0x18>
     392:	82 e0       	ldi	r24, 0x02	; 2
     394:	08 95       	ret
		lastCMD = niboCom_cmd_none;
     396:	10 92 d2 03 	sts	0x03D2, r1
		return tmp;
	}

	return niboCom_cmd_nibo_man;
}
     39a:	08 95       	ret

0000039c <niboCom_setAuto>:

void niboCom_setAuto(bool mode){
	autoMode = mode;
     39c:	80 93 d0 03 	sts	0x03D0, r24
}
     3a0:	08 95       	ret

000003a2 <niboCom_getchar>:
	while(uart0_txfull() == true);
	uart0_putchar(c);
}

uint8_t niboCom_getchar(){
	if(uart0_rxempty()==false) return uart0_getchar();
     3a2:	90 91 f3 03 	lds	r25, 0x03F3
     3a6:	80 91 f4 03 	lds	r24, 0x03F4
     3aa:	98 17       	cp	r25, r24
     3ac:	11 f4       	brne	.+4      	; 0x3b2 <niboCom_getchar+0x10>
     3ae:	80 e0       	ldi	r24, 0x00	; 0
     3b0:	08 95       	ret
     3b2:	0e 94 a8 02 	call	0x550	; 0x550 <uart0_getchar>
	return 0;
}
     3b6:	08 95       	ret

000003b8 <niboCom_uartInterrupt>:
	autoMode = mode;
}


void niboCom_uartInterrupt(){
	while(uart0_rxempty() == true);
     3b8:	90 91 f3 03 	lds	r25, 0x03F3
     3bc:	80 91 f4 03 	lds	r24, 0x03F4
     3c0:	98 17       	cp	r25, r24
     3c2:	71 f1       	breq	.+92     	; 0x420 <niboCom_uartInterrupt+0x68>
	uint8_t c = niboCom_getchar();
     3c4:	0e 94 d1 01 	call	0x3a2	; 0x3a2 <niboCom_getchar>
     3c8:	98 2f       	mov	r25, r24

	if(c == 0x68){
     3ca:	88 36       	cpi	r24, 0x68	; 104
     3cc:	21 f4       	brne	.+8      	; 0x3d6 <niboCom_uartInterrupt+0x1e>
		startSign = true;
     3ce:	81 e0       	ldi	r24, 0x01	; 1
     3d0:	80 93 d1 03 	sts	0x03D1, r24
     3d4:	04 c0       	rjmp	.+8      	; 0x3de <niboCom_uartInterrupt+0x26>
	}
	else if(startSign != true){
     3d6:	80 91 d1 03 	lds	r24, 0x03D1
     3da:	88 23       	and	r24, r24
     3dc:	11 f1       	breq	.+68     	; 0x422 <niboCom_uartInterrupt+0x6a>
		return;
	}

	buffer[bufferPos++] = c;
     3de:	80 91 d3 03 	lds	r24, 0x03D3
     3e2:	e8 2f       	mov	r30, r24
     3e4:	f0 e0       	ldi	r31, 0x00	; 0
     3e6:	e8 52       	subi	r30, 0x28	; 40
     3e8:	fc 4f       	sbci	r31, 0xFC	; 252
     3ea:	90 83       	st	Z, r25
     3ec:	8f 5f       	subi	r24, 0xFF	; 255
     3ee:	80 93 d3 03 	sts	0x03D3, r24

	if(bufferPos == 4){
     3f2:	84 30       	cpi	r24, 0x04	; 4
     3f4:	b1 f4       	brne	.+44     	; 0x422 <niboCom_uartInterrupt+0x6a>
		bufferPos = 0;
     3f6:	10 92 d3 03 	sts	0x03D3, r1
		startSign = false;
     3fa:	10 92 d1 03 	sts	0x03D1, r1
		if(c == 0x16){
     3fe:	96 31       	cpi	r25, 0x16	; 22
     400:	81 f4       	brne	.+32     	; 0x422 <niboCom_uartInterrupt+0x6a>

			if(buffer[1] == niboCom_cmd_nibo_auto){
     402:	80 91 d9 03 	lds	r24, 0x03D9
     406:	81 30       	cpi	r24, 0x01	; 1
     408:	19 f4       	brne	.+6      	; 0x410 <niboCom_uartInterrupt+0x58>
				autoMode = true;
     40a:	80 93 d0 03 	sts	0x03D0, r24
     40e:	08 95       	ret
			}
			else if(buffer[1] == niboCom_cmd_nibo_man){
     410:	82 30       	cpi	r24, 0x02	; 2
     412:	19 f4       	brne	.+6      	; 0x41a <niboCom_uartInterrupt+0x62>
				autoMode = false;
     414:	10 92 d0 03 	sts	0x03D0, r1
     418:	08 95       	ret
			}
			else{
				lastCMD = buffer[1];
     41a:	80 93 d2 03 	sts	0x03D2, r24
     41e:	08 95       	ret
     420:	ff cf       	rjmp	.-2      	; 0x420 <niboCom_uartInterrupt+0x68>
     422:	08 95       	ret

00000424 <niboCom_putchar>:
		uart0_set_baudrate(baudrate);
		uart0_enable();
}


void niboCom_putchar(uint8_t c){
     424:	98 2f       	mov	r25, r24
	while(uart0_txfull() == true);
     426:	80 91 f5 03 	lds	r24, 0x03F5
     42a:	88 3c       	cpi	r24, 0xC8	; 200
     42c:	21 f0       	breq	.+8      	; 0x436 <niboCom_putchar+0x12>
	uart0_putchar(c);
     42e:	89 2f       	mov	r24, r25
     430:	0e 94 c1 02 	call	0x582	; 0x582 <uart0_putchar>
}
     434:	08 95       	ret
     436:	ff cf       	rjmp	.-2      	; 0x436 <niboCom_putchar+0x12>

00000438 <niboCom_putPackage>:
	if(uart0_rxempty()==false) return uart0_getchar();
	return 0;
}


void niboCom_putPackage(uint8_t cmd, uint8_t size, uint8_t *data){
     438:	ef 92       	push	r14
     43a:	ff 92       	push	r15
     43c:	0f 93       	push	r16
     43e:	1f 93       	push	r17
     440:	cf 93       	push	r28
     442:	df 93       	push	r29
     444:	18 2f       	mov	r17, r24
     446:	06 2f       	mov	r16, r22
     448:	7a 01       	movw	r14, r20
	int i = 0;

	niboCom_putchar(0x68);
     44a:	88 e6       	ldi	r24, 0x68	; 104
     44c:	0e 94 12 02 	call	0x424	; 0x424 <niboCom_putchar>
	niboCom_putchar(cmd);
     450:	81 2f       	mov	r24, r17
     452:	0e 94 12 02 	call	0x424	; 0x424 <niboCom_putchar>
	niboCom_putchar(size);
     456:	80 2f       	mov	r24, r16
     458:	0e 94 12 02 	call	0x424	; 0x424 <niboCom_putchar>
     45c:	c0 e0       	ldi	r28, 0x00	; 0
     45e:	d0 e0       	ldi	r29, 0x00	; 0
	for(i = 0; i < size;i++){
     460:	10 e0       	ldi	r17, 0x00	; 0
     462:	07 c0       	rjmp	.+14     	; 0x472 <niboCom_putPackage+0x3a>
		niboCom_putchar(data[i]);
     464:	f7 01       	movw	r30, r14
     466:	ec 0f       	add	r30, r28
     468:	fd 1f       	adc	r31, r29
     46a:	80 81       	ld	r24, Z
     46c:	0e 94 12 02 	call	0x424	; 0x424 <niboCom_putchar>
	int i = 0;

	niboCom_putchar(0x68);
	niboCom_putchar(cmd);
	niboCom_putchar(size);
	for(i = 0; i < size;i++){
     470:	21 96       	adiw	r28, 0x01	; 1
     472:	c0 17       	cp	r28, r16
     474:	d1 07       	cpc	r29, r17
     476:	b4 f3       	brlt	.-20     	; 0x464 <niboCom_putPackage+0x2c>
		niboCom_putchar(data[i]);
	}
	niboCom_putchar(0x16);
     478:	86 e1       	ldi	r24, 0x16	; 22
     47a:	0e 94 12 02 	call	0x424	; 0x424 <niboCom_putchar>
}
     47e:	df 91       	pop	r29
     480:	cf 91       	pop	r28
     482:	1f 91       	pop	r17
     484:	0f 91       	pop	r16
     486:	ff 90       	pop	r15
     488:	ef 90       	pop	r14
     48a:	08 95       	ret

0000048c <niboCom_putDistance>:
void niboCom_putDircetionChange(uint8_t direction){
	niboCom_putPackage(direction,0,0);
}


void niboCom_putDistance(uint8_t ticks){
     48c:	df 93       	push	r29
     48e:	cf 93       	push	r28
     490:	0f 92       	push	r0
     492:	cd b7       	in	r28, 0x3d	; 61
     494:	de b7       	in	r29, 0x3e	; 62
     496:	89 83       	std	Y+1, r24	; 0x01
	niboCom_putPackage(niboCom_cmd_nibo_distance,1,&ticks);
     498:	85 e0       	ldi	r24, 0x05	; 5
     49a:	61 e0       	ldi	r22, 0x01	; 1
     49c:	ae 01       	movw	r20, r28
     49e:	4f 5f       	subi	r20, 0xFF	; 255
     4a0:	5f 4f       	sbci	r21, 0xFF	; 255
     4a2:	0e 94 1c 02 	call	0x438	; 0x438 <niboCom_putPackage>
}
     4a6:	0f 90       	pop	r0
     4a8:	cf 91       	pop	r28
     4aa:	df 91       	pop	r29
     4ac:	08 95       	ret

000004ae <niboCom_putDircetionChange>:
	niboCom_putPackage(niboCom_cmd_nds_distance,size, data);
}


void niboCom_putDircetionChange(uint8_t direction){
	niboCom_putPackage(direction,0,0);
     4ae:	60 e0       	ldi	r22, 0x00	; 0
     4b0:	40 e0       	ldi	r20, 0x00	; 0
     4b2:	50 e0       	ldi	r21, 0x00	; 0
     4b4:	0e 94 1c 02 	call	0x438	; 0x438 <niboCom_putPackage>
}
     4b8:	08 95       	ret

000004ba <niboCom_putNDSDistance>:
	}

	niboCom_putPackage(niboCom_cmd_ir_distance,5, distance);
}

void niboCom_putNDSDistance(int size, uint8_t *data){
     4ba:	98 2f       	mov	r25, r24
     4bc:	ab 01       	movw	r20, r22
	niboCom_putPackage(niboCom_cmd_nds_distance,size, data);
     4be:	84 e0       	ldi	r24, 0x04	; 4
     4c0:	69 2f       	mov	r22, r25
     4c2:	0e 94 1c 02 	call	0x438	; 0x438 <niboCom_putPackage>
}
     4c6:	08 95       	ret

000004c8 <niboCom_putIRDistance>:
		niboCom_putchar(data[i]);
	}
	niboCom_putchar(0x16);
}

void niboCom_putIRDistance(uint16_t *data){
     4c8:	df 93       	push	r29
     4ca:	cf 93       	push	r28
     4cc:	00 d0       	rcall	.+0      	; 0x4ce <niboCom_putIRDistance+0x6>
     4ce:	00 d0       	rcall	.+0      	; 0x4d0 <niboCom_putIRDistance+0x8>
     4d0:	0f 92       	push	r0
     4d2:	cd b7       	in	r28, 0x3d	; 61
     4d4:	de b7       	in	r29, 0x3e	; 62
     4d6:	dc 01       	movw	r26, r24
     4d8:	fe 01       	movw	r30, r28
     4da:	31 96       	adiw	r30, 0x01	; 1
	int i = 0;
	uint8_t distance[5];
	for(i = 0; i < 5;i++){
     4dc:	9e 01       	movw	r18, r28
     4de:	2a 5f       	subi	r18, 0xFA	; 250
     4e0:	3f 4f       	sbci	r19, 0xFF	; 255
		distance[i] = data[i]/256;
     4e2:	11 96       	adiw	r26, 0x01	; 1
     4e4:	8c 91       	ld	r24, X
     4e6:	11 97       	sbiw	r26, 0x01	; 1
     4e8:	81 93       	st	Z+, r24
     4ea:	12 96       	adiw	r26, 0x02	; 2
}

void niboCom_putIRDistance(uint16_t *data){
	int i = 0;
	uint8_t distance[5];
	for(i = 0; i < 5;i++){
     4ec:	e2 17       	cp	r30, r18
     4ee:	f3 07       	cpc	r31, r19
     4f0:	c1 f7       	brne	.-16     	; 0x4e2 <niboCom_putIRDistance+0x1a>
		distance[i] = data[i]/256;
	}

	niboCom_putPackage(niboCom_cmd_ir_distance,5, distance);
     4f2:	83 e0       	ldi	r24, 0x03	; 3
     4f4:	65 e0       	ldi	r22, 0x05	; 5
     4f6:	ae 01       	movw	r20, r28
     4f8:	4f 5f       	subi	r20, 0xFF	; 255
     4fa:	5f 4f       	sbci	r21, 0xFF	; 255
     4fc:	0e 94 1c 02 	call	0x438	; 0x438 <niboCom_putPackage>
}
     500:	0f 90       	pop	r0
     502:	0f 90       	pop	r0
     504:	0f 90       	pop	r0
     506:	0f 90       	pop	r0
     508:	0f 90       	pop	r0
     50a:	cf 91       	pop	r28
     50c:	df 91       	pop	r29
     50e:	08 95       	ret

00000510 <niboCom_init_with_baud>:
	niboCom_init_with_baud(niboCom_default_baudrate);
}


void niboCom_init_with_baud(uint16_t baudrate){
		uart0_set_baudrate(baudrate);
     510:	0e 94 92 02 	call	0x524	; 0x524 <uart0_set_baudrate>
		uart0_enable();
     514:	0e 94 de 02 	call	0x5bc	; 0x5bc <uart0_enable>
}
     518:	08 95       	ret

0000051a <niboCom_init>:




void niboCom_init(){
	niboCom_init_with_baud(niboCom_default_baudrate);
     51a:	80 e8       	ldi	r24, 0x80	; 128
     51c:	95 e2       	ldi	r25, 0x25	; 37
     51e:	0e 94 88 02 	call	0x510	; 0x510 <niboCom_init_with_baud>
}
     522:	08 95       	ret

00000524 <uart0_set_baudrate>:
uint8_t uart0_rxbuf_end;



void uart0_set_baudrate(uint16_t baud) {
  baud = ((uint32_t)(F_CPU))/((uint32_t)baud*16) - 1;
     524:	9c 01       	movw	r18, r24
     526:	40 e0       	ldi	r20, 0x00	; 0
     528:	50 e0       	ldi	r21, 0x00	; 0
     52a:	84 e0       	ldi	r24, 0x04	; 4
     52c:	22 0f       	add	r18, r18
     52e:	33 1f       	adc	r19, r19
     530:	44 1f       	adc	r20, r20
     532:	55 1f       	adc	r21, r21
     534:	8a 95       	dec	r24
     536:	d1 f7       	brne	.-12     	; 0x52c <uart0_set_baudrate+0x8>
     538:	60 e0       	ldi	r22, 0x00	; 0
     53a:	74 e2       	ldi	r23, 0x24	; 36
     53c:	84 ef       	ldi	r24, 0xF4	; 244
     53e:	90 e0       	ldi	r25, 0x00	; 0
     540:	0e 94 0b 16 	call	0x2c16	; 0x2c16 <__udivmodsi4>
     544:	21 50       	subi	r18, 0x01	; 1
     546:	30 40       	sbci	r19, 0x00	; 0
  UBRR0H = (uint8_t)(baud>>8);
     548:	30 93 90 00 	sts	0x0090, r19
  UBRR0L = (uint8_t)(baud&0xff);
     54c:	29 b9       	out	0x09, r18	; 9
}
     54e:	08 95       	ret

00000550 <uart0_getchar>:


char uart0_getchar() {
  cli();
     550:	f8 94       	cli
  uint8_t result = uart0_rxbuf[uart0_rxbuf_begin];
     552:	90 91 f3 03 	lds	r25, 0x03F3
     556:	e9 2f       	mov	r30, r25
     558:	f0 e0       	ldi	r31, 0x00	; 0
     55a:	ed 51       	subi	r30, 0x1D	; 29
     55c:	fc 4f       	sbci	r31, 0xFC	; 252
     55e:	e0 81       	ld	r30, Z
  if (uart0_rxbuf_end==UART0_RXBUF_SIZE) {
     560:	80 91 f4 03 	lds	r24, 0x03F4
     564:	88 30       	cpi	r24, 0x08	; 8
     566:	11 f4       	brne	.+4      	; 0x56c <uart0_getchar+0x1c>
    uart0_rxbuf_end=uart0_rxbuf_begin;
     568:	90 93 f4 03 	sts	0x03F4, r25
  }
  
  if (++uart0_rxbuf_begin>=UART0_RXBUF_SIZE) {
     56c:	89 2f       	mov	r24, r25
     56e:	8f 5f       	subi	r24, 0xFF	; 255
     570:	80 93 f3 03 	sts	0x03F3, r24
     574:	88 30       	cpi	r24, 0x08	; 8
     576:	10 f0       	brcs	.+4      	; 0x57c <uart0_getchar+0x2c>
    uart0_rxbuf_begin=0;
     578:	10 92 f3 03 	sts	0x03F3, r1
  }
  sei();
     57c:	78 94       	sei
  return result;
}
     57e:	8e 2f       	mov	r24, r30
     580:	08 95       	ret

00000582 <uart0_putchar>:


char uart0_putchar(char c) {
     582:	28 2f       	mov	r18, r24
  cli();
     584:	f8 94       	cli
  uart0_txbuf[uart0_txbuf_end] = c;
     586:	80 91 f5 03 	lds	r24, 0x03F5
     58a:	e8 2f       	mov	r30, r24
     58c:	f0 e0       	ldi	r31, 0x00	; 0
     58e:	e5 51       	subi	r30, 0x15	; 21
     590:	fc 4f       	sbci	r31, 0xFC	; 252
     592:	20 83       	st	Z, r18
  if (++uart0_txbuf_end>=UART0_TXBUF_SIZE) {
     594:	8f 5f       	subi	r24, 0xFF	; 255
     596:	80 93 f5 03 	sts	0x03F5, r24
     59a:	88 30       	cpi	r24, 0x08	; 8
     59c:	10 f0       	brcs	.+4      	; 0x5a2 <uart0_putchar+0x20>
    uart0_txbuf_end=0;
     59e:	10 92 f5 03 	sts	0x03F5, r1
  }
  if (uart0_txbuf_end==uart0_txbuf_begin) {
     5a2:	90 91 f5 03 	lds	r25, 0x03F5
     5a6:	80 91 e2 03 	lds	r24, 0x03E2
     5aa:	98 17       	cp	r25, r24
     5ac:	19 f4       	brne	.+6      	; 0x5b4 <uart0_putchar+0x32>
    uart0_txbuf_end=UART0_TXBUF_SIZE;
     5ae:	88 e0       	ldi	r24, 0x08	; 8
     5b0:	80 93 f5 03 	sts	0x03F5, r24
  }
  // reenable transmit register empty interrupt
  UCSR0B |= _BV(UDRIE0);
     5b4:	55 9a       	sbi	0x0a, 5	; 10
  sei();
     5b6:	78 94       	sei
  return c;
}
     5b8:	82 2f       	mov	r24, r18
     5ba:	08 95       	ret

000005bc <uart0_enable>:
  return c;
}


void uart0_enable() {
  UCSR0B = _BV(RXCIE0) + _BV(UDRIE0) + _BV(RXEN0) + _BV(TXEN0);
     5bc:	88 eb       	ldi	r24, 0xB8	; 184
     5be:	8a b9       	out	0x0a, r24	; 10
}
     5c0:	08 95       	ret

000005c2 <uart0_disable>:


void uart0_disable() {
  UCSR0B = 0;
     5c2:	1a b8       	out	0x0a, r1	; 10
}
     5c4:	08 95       	ret

000005c6 <__vector_19>:
  }
  niboCom_uartInterrupt();
}


ISR(USART0_UDRE_vect) {
     5c6:	1f 92       	push	r1
     5c8:	0f 92       	push	r0
     5ca:	0f b6       	in	r0, 0x3f	; 63
     5cc:	0f 92       	push	r0
     5ce:	0b b6       	in	r0, 0x3b	; 59
     5d0:	0f 92       	push	r0
     5d2:	11 24       	eor	r1, r1
     5d4:	8f 93       	push	r24
     5d6:	9f 93       	push	r25
     5d8:	ef 93       	push	r30
     5da:	ff 93       	push	r31

/*!
 * Liefert true wenn der Sendepuffer leer ist.
 */
static inline char uart0_txempty() {
  return uart0_txbuf_begin==uart0_txbuf_end;
     5dc:	80 91 e2 03 	lds	r24, 0x03E2
     5e0:	90 91 f5 03 	lds	r25, 0x03F5
  if (!uart0_txempty()) {
     5e4:	89 17       	cp	r24, r25
     5e6:	91 f0       	breq	.+36     	; 0x60c <__vector_19+0x46>
  return c;
}


static char uart0_tx_getchar() {
  uint8_t result = uart0_txbuf[uart0_txbuf_begin];
     5e8:	e8 2f       	mov	r30, r24
     5ea:	f0 e0       	ldi	r31, 0x00	; 0
     5ec:	e5 51       	subi	r30, 0x15	; 21
     5ee:	fc 4f       	sbci	r31, 0xFC	; 252
     5f0:	e0 81       	ld	r30, Z
  if (uart0_txbuf_end==UART0_TXBUF_SIZE) {
     5f2:	98 30       	cpi	r25, 0x08	; 8
     5f4:	11 f4       	brne	.+4      	; 0x5fa <__vector_19+0x34>
    uart0_txbuf_end=uart0_txbuf_begin;
     5f6:	80 93 f5 03 	sts	0x03F5, r24
  }
  
  if (++uart0_txbuf_begin>=UART0_TXBUF_SIZE) {
     5fa:	8f 5f       	subi	r24, 0xFF	; 255
     5fc:	80 93 e2 03 	sts	0x03E2, r24
     600:	88 30       	cpi	r24, 0x08	; 8
     602:	10 f0       	brcs	.+4      	; 0x608 <__vector_19+0x42>
    uart0_txbuf_begin=0;
     604:	10 92 e2 03 	sts	0x03E2, r1
}


ISR(USART0_UDRE_vect) {
  if (!uart0_txempty()) {
    UDR0 = uart0_tx_getchar();
     608:	ec b9       	out	0x0c, r30	; 12
     60a:	01 c0       	rjmp	.+2      	; 0x60e <__vector_19+0x48>
  } else {
    UCSR0B &= ~_BV(UDRIE0);
     60c:	55 98       	cbi	0x0a, 5	; 10
  }
}
     60e:	ff 91       	pop	r31
     610:	ef 91       	pop	r30
     612:	9f 91       	pop	r25
     614:	8f 91       	pop	r24
     616:	0f 90       	pop	r0
     618:	0b be       	out	0x3b, r0	; 59
     61a:	0f 90       	pop	r0
     61c:	0f be       	out	0x3f, r0	; 63
     61e:	0f 90       	pop	r0
     620:	1f 90       	pop	r1
     622:	18 95       	reti

00000624 <__vector_18>:
void uart0_disable() {
  UCSR0B = 0;
}


ISR(USART0_RX_vect) {
     624:	1f 92       	push	r1
     626:	0f 92       	push	r0
     628:	0f b6       	in	r0, 0x3f	; 63
     62a:	0f 92       	push	r0
     62c:	0b b6       	in	r0, 0x3b	; 59
     62e:	0f 92       	push	r0
     630:	11 24       	eor	r1, r1
     632:	2f 93       	push	r18
     634:	3f 93       	push	r19
     636:	4f 93       	push	r20
     638:	5f 93       	push	r21
     63a:	6f 93       	push	r22
     63c:	7f 93       	push	r23
     63e:	8f 93       	push	r24
     640:	9f 93       	push	r25
     642:	af 93       	push	r26
     644:	bf 93       	push	r27
     646:	ef 93       	push	r30
     648:	ff 93       	push	r31
  uint8_t c = UDR0;
     64a:	9c b1       	in	r25, 0x0c	; 12

/*!
 * Liefert true wenn der Empfangspuffer voll ist.
 */
static inline char uart0_rxfull() {
  return uart0_rxbuf_end==UART0_RXBUF_SIZE;
     64c:	80 91 f4 03 	lds	r24, 0x03F4
  if (!uart0_rxfull()) {
     650:	88 30       	cpi	r24, 0x08	; 8
     652:	a9 f0       	breq	.+42     	; 0x67e <__vector_18+0x5a>
  return result;
}


static char uart0_rx_putchar(char c) {
  uart0_rxbuf[uart0_rxbuf_end] = c;
     654:	e8 2f       	mov	r30, r24
     656:	f0 e0       	ldi	r31, 0x00	; 0
     658:	ed 51       	subi	r30, 0x1D	; 29
     65a:	fc 4f       	sbci	r31, 0xFC	; 252
     65c:	90 83       	st	Z, r25
  if (++uart0_rxbuf_end>=UART0_RXBUF_SIZE) {
     65e:	8f 5f       	subi	r24, 0xFF	; 255
     660:	80 93 f4 03 	sts	0x03F4, r24
     664:	88 30       	cpi	r24, 0x08	; 8
     666:	10 f0       	brcs	.+4      	; 0x66c <__vector_18+0x48>
    uart0_rxbuf_end=0;
     668:	10 92 f4 03 	sts	0x03F4, r1
  }
  if (uart0_rxbuf_end==uart0_rxbuf_begin) {
     66c:	90 91 f4 03 	lds	r25, 0x03F4
     670:	80 91 f3 03 	lds	r24, 0x03F3
     674:	98 17       	cp	r25, r24
     676:	19 f4       	brne	.+6      	; 0x67e <__vector_18+0x5a>
    uart0_rxbuf_end=UART0_RXBUF_SIZE;
     678:	88 e0       	ldi	r24, 0x08	; 8
     67a:	80 93 f4 03 	sts	0x03F4, r24
ISR(USART0_RX_vect) {
  uint8_t c = UDR0;
  if (!uart0_rxfull()) {
    uart0_rx_putchar(c);
  }
  niboCom_uartInterrupt();
     67e:	0e 94 dc 01 	call	0x3b8	; 0x3b8 <niboCom_uartInterrupt>
}
     682:	ff 91       	pop	r31
     684:	ef 91       	pop	r30
     686:	bf 91       	pop	r27
     688:	af 91       	pop	r26
     68a:	9f 91       	pop	r25
     68c:	8f 91       	pop	r24
     68e:	7f 91       	pop	r23
     690:	6f 91       	pop	r22
     692:	5f 91       	pop	r21
     694:	4f 91       	pop	r20
     696:	3f 91       	pop	r19
     698:	2f 91       	pop	r18
     69a:	0f 90       	pop	r0
     69c:	0b be       	out	0x3b, r0	; 59
     69e:	0f 90       	pop	r0
     6a0:	0f be       	out	0x3f, r0	; 63
     6a2:	0f 90       	pop	r0
     6a4:	1f 90       	pop	r1
     6a6:	18 95       	reti

000006a8 <advDisplay_printTerminal>:
}

/**
 * prints all lines in terminal_text to the display
 */
void advDisplay_printTerminal(){
     6a8:	cf 92       	push	r12
     6aa:	df 92       	push	r13
     6ac:	ef 92       	push	r14
     6ae:	ff 92       	push	r15
     6b0:	0f 93       	push	r16
     6b2:	cf 93       	push	r28
     6b4:	df 93       	push	r29
     6b6:	c0 e0       	ldi	r28, 0x00	; 0
     6b8:	d0 e0       	ldi	r29, 0x00	; 0
     6ba:	00 e0       	ldi	r16, 0x00	; 0
	int index;

	for(i = 0; i < terminal_count;i++){
		gfx_move(logo_width,10 + 10*i);
		index = (terminal_head + i)%terminal_lines;
		gfx_print_text(terminal_text[index]);
     6bc:	84 e1       	ldi	r24, 0x14	; 20
     6be:	c8 2e       	mov	r12, r24
     6c0:	d1 2c       	mov	r13, r1
     6c2:	23 c0       	rjmp	.+70     	; 0x70a <advDisplay_printTerminal+0x62>
void advDisplay_printTerminal(){
	int i;
	int index;

	for(i = 0; i < terminal_count;i++){
		gfx_move(logo_width,10 + 10*i);
     6c4:	7e 01       	movw	r14, r28
     6c6:	08 94       	sec
     6c8:	e1 1c       	adc	r14, r1
     6ca:	f1 1c       	adc	r15, r1
     6cc:	81 e3       	ldi	r24, 0x31	; 49
     6ce:	60 2f       	mov	r22, r16
     6d0:	0e 94 b3 08 	call	0x1166	; 0x1166 <gfx_move>
		index = (terminal_head + i)%terminal_lines;
		gfx_print_text(terminal_text[index]);
     6d4:	80 91 d4 03 	lds	r24, 0x03D4
     6d8:	90 91 d5 03 	lds	r25, 0x03D5
     6dc:	8c 0f       	add	r24, r28
     6de:	9d 1f       	adc	r25, r29
     6e0:	65 e0       	ldi	r22, 0x05	; 5
     6e2:	70 e0       	ldi	r23, 0x00	; 0
     6e4:	0e 94 f8 15 	call	0x2bf0	; 0x2bf0 <__divmodhi4>
     6e8:	9c 01       	movw	r18, r24
     6ea:	2c 9d       	mul	r18, r12
     6ec:	c0 01       	movw	r24, r0
     6ee:	2d 9d       	mul	r18, r13
     6f0:	90 0d       	add	r25, r0
     6f2:	3c 9d       	mul	r19, r12
     6f4:	90 0d       	add	r25, r0
     6f6:	11 24       	eor	r1, r1
     6f8:	84 5e       	subi	r24, 0xE4	; 228
     6fa:	9e 4f       	sbci	r25, 0xFE	; 254
     6fc:	0e 94 35 0d 	call	0x1a6a	; 0x1a6a <gfx_print_text>
		delay(10);
     700:	8a e0       	ldi	r24, 0x0A	; 10
     702:	90 e0       	ldi	r25, 0x00	; 0
     704:	0e 94 b3 06 	call	0xd66	; 0xd66 <delay>
     708:	e7 01       	movw	r28, r14
     70a:	06 5f       	subi	r16, 0xF6	; 246
 */
void advDisplay_printTerminal(){
	int i;
	int index;

	for(i = 0; i < terminal_count;i++){
     70c:	80 91 d6 03 	lds	r24, 0x03D6
     710:	90 91 d7 03 	lds	r25, 0x03D7
     714:	c8 17       	cp	r28, r24
     716:	d9 07       	cpc	r29, r25
     718:	ac f2       	brlt	.-86     	; 0x6c4 <advDisplay_printTerminal+0x1c>
		index = (terminal_head + i)%terminal_lines;
		gfx_print_text(terminal_text[index]);
		delay(10);
	}

}
     71a:	df 91       	pop	r29
     71c:	cf 91       	pop	r28
     71e:	0f 91       	pop	r16
     720:	ff 90       	pop	r15
     722:	ef 90       	pop	r14
     724:	df 90       	pop	r13
     726:	cf 90       	pop	r12
     728:	08 95       	ret

0000072a <advDisplay_append_line>:

/**
 *	@brief appends a line to the advDisplay terminal -> display can show the last #terminal_lines lines
 *	@param string to append
 */
void advDisplay_append_line(const char *txt){
     72a:	fc 01       	movw	r30, r24

	//calculate index for the new line in terminal_text
	int index = (terminal_head + terminal_count)%terminal_lines;

	//copy the line into terminal_text array at calculated index
	strcpy(terminal_text[index], txt);
     72c:	80 91 d6 03 	lds	r24, 0x03D6
     730:	90 91 d7 03 	lds	r25, 0x03D7
     734:	20 91 d4 03 	lds	r18, 0x03D4
     738:	30 91 d5 03 	lds	r19, 0x03D5
     73c:	82 0f       	add	r24, r18
     73e:	93 1f       	adc	r25, r19
     740:	65 e0       	ldi	r22, 0x05	; 5
     742:	70 e0       	ldi	r23, 0x00	; 0
     744:	0e 94 f8 15 	call	0x2bf0	; 0x2bf0 <__divmodhi4>
     748:	24 e1       	ldi	r18, 0x14	; 20
     74a:	30 e0       	ldi	r19, 0x00	; 0
     74c:	ac 01       	movw	r20, r24
     74e:	42 9f       	mul	r20, r18
     750:	c0 01       	movw	r24, r0
     752:	43 9f       	mul	r20, r19
     754:	90 0d       	add	r25, r0
     756:	52 9f       	mul	r21, r18
     758:	90 0d       	add	r25, r0
     75a:	11 24       	eor	r1, r1
     75c:	84 5e       	subi	r24, 0xE4	; 228
     75e:	9e 4f       	sbci	r25, 0xFE	; 254
     760:	bf 01       	movw	r22, r30
     762:	0e 94 24 17 	call	0x2e48	; 0x2e48 <strcpy>


	if(terminal_count < 5){
     766:	80 91 d6 03 	lds	r24, 0x03D6
     76a:	90 91 d7 03 	lds	r25, 0x03D7
     76e:	85 30       	cpi	r24, 0x05	; 5
     770:	91 05       	cpc	r25, r1
     772:	34 f4       	brge	.+12     	; 0x780 <advDisplay_append_line+0x56>
		terminal_count++;
     774:	01 96       	adiw	r24, 0x01	; 1
     776:	90 93 d7 03 	sts	0x03D7, r25
     77a:	80 93 d6 03 	sts	0x03D6, r24
     77e:	09 c0       	rjmp	.+18     	; 0x792 <advDisplay_append_line+0x68>
	}
	else{
		terminal_head = (terminal_head++)%terminal_lines;
     780:	80 91 d4 03 	lds	r24, 0x03D4
     784:	90 91 d5 03 	lds	r25, 0x03D5
     788:	01 96       	adiw	r24, 0x01	; 1
     78a:	90 93 d5 03 	sts	0x03D5, r25
     78e:	80 93 d4 03 	sts	0x03D4, r24
	}

	//refresh the terminal output on the display
	advDisplay_printTerminal();
     792:	0e 94 54 03 	call	0x6a8	; 0x6a8 <advDisplay_printTerminal>
}
     796:	08 95       	ret

00000798 <advDisplay_clear>:


/**
 *	@brief clears the terminal area of the display
 */
void advDisplay_clear(){
     798:	1f 93       	push	r17
     79a:	cf 93       	push	r28
     79c:	df 93       	push	r29

	int i = 0;
	//stop interrupts
	cli();
     79e:	f8 94       	cli
     7a0:	1a e0       	ldi	r17, 0x0A	; 10

	//clear with whitespaces
	for(i = 10; i <= 50; i = i +10){
		gfx_move(logo_width, i);
     7a2:	81 e3       	ldi	r24, 0x31	; 49
     7a4:	61 2f       	mov	r22, r17
     7a6:	0e 94 b3 08 	call	0x1166	; 0x1166 <gfx_move>
		gfx_print_text("             ");
     7aa:	80 e0       	ldi	r24, 0x00	; 0
     7ac:	91 e0       	ldi	r25, 0x01	; 1
     7ae:	0e 94 35 0d 	call	0x1a6a	; 0x1a6a <gfx_print_text>
     7b2:	16 5f       	subi	r17, 0xF6	; 246
	int i = 0;
	//stop interrupts
	cli();

	//clear with whitespaces
	for(i = 10; i <= 50; i = i +10){
     7b4:	1c 33       	cpi	r17, 0x3C	; 60
     7b6:	a9 f7       	brne	.-22     	; 0x7a2 <advDisplay_clear+0xa>
     7b8:	cc e1       	ldi	r28, 0x1C	; 28
     7ba:	d1 e0       	ldi	r29, 0x01	; 1
		gfx_move(logo_width, i);
		gfx_print_text("             ");
	}

	for(i = 0; i < terminal_lines; i++){
		strcpy(terminal_text[i],"");
     7bc:	ce 01       	movw	r24, r28
     7be:	6e e0       	ldi	r22, 0x0E	; 14
     7c0:	71 e0       	ldi	r23, 0x01	; 1
     7c2:	0e 94 24 17 	call	0x2e48	; 0x2e48 <strcpy>
     7c6:	64 96       	adiw	r28, 0x14	; 20
	for(i = 10; i <= 50; i = i +10){
		gfx_move(logo_width, i);
		gfx_print_text("             ");
	}

	for(i = 0; i < terminal_lines; i++){
     7c8:	81 e0       	ldi	r24, 0x01	; 1
     7ca:	c0 38       	cpi	r28, 0x80	; 128
     7cc:	d8 07       	cpc	r29, r24
     7ce:	b1 f7       	brne	.-20     	; 0x7bc <advDisplay_clear+0x24>
		strcpy(terminal_text[i],"");
	}

	//enable interrupts
	sei();
     7d0:	78 94       	sei
}
     7d2:	df 91       	pop	r29
     7d4:	cf 91       	pop	r28
     7d6:	1f 91       	pop	r17
     7d8:	08 95       	ret

000007da <advDisplay_init>:
/**
 *	@brief initializes the advanced Display library
 */
void advDisplay_init(){
	//init diplay an graphics lib
	display_init();
     7da:	0e 94 9f 05 	call	0xb3e	; 0xb3e <display_init>
	gfx_init();
     7de:	0e 94 74 08 	call	0x10e8	; 0x10e8 <gfx_init>

	//move to top left corner and draw logo
	gfx_move(0,0);
     7e2:	80 e0       	ldi	r24, 0x00	; 0
     7e4:	60 e0       	ldi	r22, 0x00	; 0
     7e6:	0e 94 b3 08 	call	0x1166	; 0x1166 <gfx_move>
	gfx_draw_xbm_P(logo_width, logo_height, (PGM_P) logo_bits);
     7ea:	81 e3       	ldi	r24, 0x31	; 49
     7ec:	6c e3       	ldi	r22, 0x3C	; 60
     7ee:	4c e8       	ldi	r20, 0x8C	; 140
     7f0:	50 e0       	ldi	r21, 0x00	; 0
     7f2:	0e 94 b5 09 	call	0x136a	; 0x136a <gfx_draw_xbm_P>
}
     7f6:	08 95       	ret

000007f8 <advDisplay_printVoltage>:


/**
 * @brief prints the current Voltage on the display
 */
void advDisplay_printVoltage(){
     7f8:	ef 92       	push	r14
     7fa:	ff 92       	push	r15
     7fc:	0f 93       	push	r16
     7fe:	1f 93       	push	r17
     800:	df 93       	push	r29
     802:	cf 93       	push	r28
     804:	cd b7       	in	r28, 0x3d	; 61
     806:	de b7       	in	r29, 0x3e	; 62
     808:	64 97       	sbiw	r28, 0x14	; 20
     80a:	0f b6       	in	r0, 0x3f	; 63
     80c:	f8 94       	cli
     80e:	de bf       	out	0x3e, r29	; 62
     810:	0f be       	out	0x3f, r0	; 63
     812:	cd bf       	out	0x3d, r28	; 61
		char output[20] = "";
     814:	19 82       	std	Y+1, r1	; 0x01
     816:	1a 82       	std	Y+2, r1	; 0x02
     818:	1b 82       	std	Y+3, r1	; 0x03
     81a:	1c 82       	std	Y+4, r1	; 0x04
     81c:	fe 01       	movw	r30, r28
     81e:	35 96       	adiw	r30, 0x05	; 5
     820:	80 e1       	ldi	r24, 0x10	; 16
     822:	df 01       	movw	r26, r30
     824:	1d 92       	st	X+, r1
     826:	8a 95       	dec	r24
     828:	e9 f7       	brne	.-6      	; 0x824 <advDisplay_printVoltage+0x2c>
		double volt = 0;

		//get currente voltage value
		bot_update();
     82a:	0e 94 1e 0f 	call	0x1e3c	; 0x1e3c <bot_update>
		//calculate the voltage from adc-value
		volt = 0.0166 * bot_supply -1.19;
		//concat output string
		sprintf(output, "VCC: %2.1f V", volt);
     82e:	ed b7       	in	r30, 0x3d	; 61
     830:	fe b7       	in	r31, 0x3e	; 62
     832:	38 97       	sbiw	r30, 0x08	; 8
     834:	0f b6       	in	r0, 0x3f	; 63
     836:	f8 94       	cli
     838:	fe bf       	out	0x3e, r31	; 62
     83a:	0f be       	out	0x3f, r0	; 63
     83c:	ed bf       	out	0x3d, r30	; 61
     83e:	0d b7       	in	r16, 0x3d	; 61
     840:	1e b7       	in	r17, 0x3e	; 62
     842:	0f 5f       	subi	r16, 0xFF	; 255
     844:	1f 4f       	sbci	r17, 0xFF	; 255
     846:	7e 01       	movw	r14, r28
     848:	08 94       	sec
     84a:	e1 1c       	adc	r14, r1
     84c:	f1 1c       	adc	r15, r1
     84e:	f2 82       	std	Z+2, r15	; 0x02
     850:	e1 82       	std	Z+1, r14	; 0x01
     852:	8f e0       	ldi	r24, 0x0F	; 15
     854:	91 e0       	ldi	r25, 0x01	; 1
     856:	d8 01       	movw	r26, r16
     858:	13 96       	adiw	r26, 0x03	; 3
     85a:	9c 93       	st	X, r25
     85c:	8e 93       	st	-X, r24
     85e:	12 97       	sbiw	r26, 0x02	; 2
     860:	60 91 ae 04 	lds	r22, 0x04AE
     864:	70 91 af 04 	lds	r23, 0x04AF
     868:	80 e0       	ldi	r24, 0x00	; 0
     86a:	90 e0       	ldi	r25, 0x00	; 0
     86c:	0e 94 50 10 	call	0x20a0	; 0x20a0 <__floatunsisf>
     870:	29 eb       	ldi	r18, 0xB9	; 185
     872:	3c ef       	ldi	r19, 0xFC	; 252
     874:	47 e8       	ldi	r20, 0x87	; 135
     876:	5c e3       	ldi	r21, 0x3C	; 60
     878:	0e 94 de 10 	call	0x21bc	; 0x21bc <__mulsf3>
     87c:	2c ee       	ldi	r18, 0xEC	; 236
     87e:	31 e5       	ldi	r19, 0x51	; 81
     880:	48 e9       	ldi	r20, 0x98	; 152
     882:	5f e3       	ldi	r21, 0x3F	; 63
     884:	0e 94 eb 0f 	call	0x1fd6	; 0x1fd6 <__subsf3>
     888:	f8 01       	movw	r30, r16
     88a:	64 83       	std	Z+4, r22	; 0x04
     88c:	75 83       	std	Z+5, r23	; 0x05
     88e:	86 83       	std	Z+6, r24	; 0x06
     890:	97 83       	std	Z+7, r25	; 0x07
     892:	0e 94 62 17 	call	0x2ec4	; 0x2ec4 <sprintf>

		//move to the position on the display where to write
		gfx_move(logo_width,0);
     896:	8d b7       	in	r24, 0x3d	; 61
     898:	9e b7       	in	r25, 0x3e	; 62
     89a:	08 96       	adiw	r24, 0x08	; 8
     89c:	0f b6       	in	r0, 0x3f	; 63
     89e:	f8 94       	cli
     8a0:	9e bf       	out	0x3e, r25	; 62
     8a2:	0f be       	out	0x3f, r0	; 63
     8a4:	8d bf       	out	0x3d, r24	; 61
     8a6:	81 e3       	ldi	r24, 0x31	; 49
     8a8:	60 e0       	ldi	r22, 0x00	; 0
     8aa:	0e 94 b3 08 	call	0x1166	; 0x1166 <gfx_move>

		//draw text
		gfx_print_text(output);
     8ae:	c7 01       	movw	r24, r14
     8b0:	0e 94 35 0d 	call	0x1a6a	; 0x1a6a <gfx_print_text>
}
     8b4:	64 96       	adiw	r28, 0x14	; 20
     8b6:	0f b6       	in	r0, 0x3f	; 63
     8b8:	f8 94       	cli
     8ba:	de bf       	out	0x3e, r29	; 62
     8bc:	0f be       	out	0x3f, r0	; 63
     8be:	cd bf       	out	0x3d, r28	; 61
     8c0:	cf 91       	pop	r28
     8c2:	df 91       	pop	r29
     8c4:	1f 91       	pop	r17
     8c6:	0f 91       	pop	r16
     8c8:	ff 90       	pop	r15
     8ca:	ef 90       	pop	r14
     8cc:	08 95       	ret

000008ce <initNibo>:
//	else copro_setSpeed(14,14);

}

void initNibo(){
	bot_init();
     8ce:	0e 94 26 0f 	call	0x1e4c	; 0x1e4c <bot_init>

	sei();
     8d2:	78 94       	sei
	spi_init();
     8d4:	0e 94 da 06 	call	0xdb4	; 0xdb4 <spi_init>

	sound_init();
     8d8:	0e 94 8b 0f 	call	0x1f16	; 0x1f16 <sound_init>

	pwm_init();
     8dc:	0e 94 fd 05 	call	0xbfa	; 0xbfa <pwm_init>
	leds_init();
     8e0:	0e 94 32 0f 	call	0x1e64	; 0x1e64 <leds_init>

	copro_ir_startMeasure();
     8e4:	0e 94 a3 0e 	call	0x1d46	; 0x1d46 <copro_ir_startMeasure>

	i2c_init();
     8e8:	0e 94 43 15 	call	0x2a86	; 0x2a86 <i2c_init>

	//Martini libs
	advDisplay_init();
     8ec:	0e 94 ed 03 	call	0x7da	; 0x7da <advDisplay_init>

	niboCom_init();
     8f0:	0e 94 8d 02 	call	0x51a	; 0x51a <niboCom_init>


	//Timer-interrupt init
	// set Prescaler 1024
	TCCR2 = ((1<<CS22)|(0<<CS21)|(1<<CS20));
     8f4:	85 e0       	ldi	r24, 0x05	; 5
     8f6:	85 bd       	out	0x25, r24	; 37
	//enable Timer-Overflow-Interrupt
	TIMSK |= (1<<TOIE2);
     8f8:	87 b7       	in	r24, 0x37	; 55
     8fa:	80 64       	ori	r24, 0x40	; 64
     8fc:	87 bf       	out	0x37, r24	; 55

	//leds_set_status_intensity(128);

	advDisplay_append_line("Initialisiert!");
     8fe:	80 e8       	ldi	r24, 0x80	; 128
     900:	91 e0       	ldi	r25, 0x01	; 1
     902:	0e 94 95 03 	call	0x72a	; 0x72a <advDisplay_append_line>
}
     906:	08 95       	ret

00000908 <main>:
 *
 * @return returns always 0
 */
int main(void){

	initNibo();
     908:	0e 94 67 04 	call	0x8ce	; 0x8ce <initNibo>
//		}

		//niboCom_putIRDistance(copro_distance);


		delay(1000);
     90c:	88 ee       	ldi	r24, 0xE8	; 232
     90e:	93 e0       	ldi	r25, 0x03	; 3
     910:	0e 94 b3 06 	call	0xd66	; 0xd66 <delay>
		advDisplay_printVoltage();
     914:	0e 94 fc 03 	call	0x7f8	; 0x7f8 <advDisplay_printVoltage>
     918:	f9 cf       	rjmp	.-14     	; 0x90c <main+0x4>

0000091a <checkDistance>:


void checkDistance(){

	bool obstacle = false;
	copro_update();
     91a:	0e 94 55 0d 	call	0x1aaa	; 0x1aaa <copro_update>

	//left
	if((copro_distance[0]/256) > ir_sensor_limit){
     91e:	80 91 70 04 	lds	r24, 0x0470
     922:	90 91 71 04 	lds	r25, 0x0471
     926:	80 50       	subi	r24, 0x00	; 0
     928:	97 44       	sbci	r25, 0x47	; 71
     92a:	10 f0       	brcs	.+4      	; 0x930 <checkDistance+0x16>
		leds_set_status(LEDS_RED,7);
     92c:	82 e0       	ldi	r24, 0x02	; 2
     92e:	01 c0       	rjmp	.+2      	; 0x932 <checkDistance+0x18>
		obstacle = true;
	}
	else leds_set_status(LEDS_GREEN,7);
     930:	81 e0       	ldi	r24, 0x01	; 1
     932:	67 e0       	ldi	r22, 0x07	; 7
     934:	0e 94 3a 0f 	call	0x1e74	; 0x1e74 <leds_set_status>

	//half left
	if((copro_distance[1]/256) > ir_sensor_limit){
     938:	80 91 72 04 	lds	r24, 0x0472
     93c:	90 91 73 04 	lds	r25, 0x0473
     940:	80 50       	subi	r24, 0x00	; 0
     942:	97 44       	sbci	r25, 0x47	; 71
     944:	10 f0       	brcs	.+4      	; 0x94a <checkDistance+0x30>
		leds_set_status(LEDS_RED,6);
     946:	82 e0       	ldi	r24, 0x02	; 2
     948:	01 c0       	rjmp	.+2      	; 0x94c <checkDistance+0x32>
		obstacle = true;
	}
	else leds_set_status(LEDS_GREEN,6);
     94a:	81 e0       	ldi	r24, 0x01	; 1
     94c:	66 e0       	ldi	r22, 0x06	; 6
     94e:	0e 94 3a 0f 	call	0x1e74	; 0x1e74 <leds_set_status>

	//front
	if((copro_distance[2]/256) > ir_sensor_limit){
     952:	80 91 74 04 	lds	r24, 0x0474
     956:	90 91 75 04 	lds	r25, 0x0475
     95a:	80 50       	subi	r24, 0x00	; 0
     95c:	97 44       	sbci	r25, 0x47	; 71
     95e:	30 f0       	brcs	.+12     	; 0x96c <checkDistance+0x52>
		leds_set_status(LEDS_RED,5);leds_set_status(LEDS_RED,4);
     960:	82 e0       	ldi	r24, 0x02	; 2
     962:	65 e0       	ldi	r22, 0x05	; 5
     964:	0e 94 3a 0f 	call	0x1e74	; 0x1e74 <leds_set_status>
     968:	82 e0       	ldi	r24, 0x02	; 2
     96a:	05 c0       	rjmp	.+10     	; 0x976 <checkDistance+0x5c>
		obstacle = true;
	}
	else{
		leds_set_status(LEDS_GREEN,5);
     96c:	81 e0       	ldi	r24, 0x01	; 1
     96e:	65 e0       	ldi	r22, 0x05	; 5
     970:	0e 94 3a 0f 	call	0x1e74	; 0x1e74 <leds_set_status>
		leds_set_status(LEDS_GREEN,4);
     974:	81 e0       	ldi	r24, 0x01	; 1
     976:	64 e0       	ldi	r22, 0x04	; 4
     978:	0e 94 3a 0f 	call	0x1e74	; 0x1e74 <leds_set_status>
	}

	//half right
	if((copro_distance[3]/256) > ir_sensor_limit){
     97c:	80 91 76 04 	lds	r24, 0x0476
     980:	90 91 77 04 	lds	r25, 0x0477
     984:	80 50       	subi	r24, 0x00	; 0
     986:	97 44       	sbci	r25, 0x47	; 71
     988:	10 f0       	brcs	.+4      	; 0x98e <checkDistance+0x74>
		leds_set_status(LEDS_RED,3);
     98a:	82 e0       	ldi	r24, 0x02	; 2
     98c:	01 c0       	rjmp	.+2      	; 0x990 <checkDistance+0x76>
		obstacle = true;
	}
	else leds_set_status(LEDS_GREEN,3);
     98e:	81 e0       	ldi	r24, 0x01	; 1
     990:	63 e0       	ldi	r22, 0x03	; 3
     992:	0e 94 3a 0f 	call	0x1e74	; 0x1e74 <leds_set_status>

	//right
	if((copro_distance[4]/256) > ir_sensor_limit){
     996:	80 91 78 04 	lds	r24, 0x0478
     99a:	90 91 79 04 	lds	r25, 0x0479
     99e:	80 50       	subi	r24, 0x00	; 0
     9a0:	97 44       	sbci	r25, 0x47	; 71
     9a2:	10 f0       	brcs	.+4      	; 0x9a8 <checkDistance+0x8e>
		leds_set_status(LEDS_RED,2);
     9a4:	82 e0       	ldi	r24, 0x02	; 2
     9a6:	01 c0       	rjmp	.+2      	; 0x9aa <checkDistance+0x90>
		obstacle = true;
	}
	else leds_set_status(LEDS_GREEN,2);
     9a8:	81 e0       	ldi	r24, 0x01	; 1
     9aa:	62 e0       	ldi	r22, 0x02	; 2
     9ac:	0e 94 3a 0f 	call	0x1e74	; 0x1e74 <leds_set_status>
     9b0:	08 95       	ret

000009b2 <__vector_10>:

/**
 * @brief Timer2 interrupt
 */
ISR(TIMER2_OVF_vect)
{
     9b2:	1f 92       	push	r1
     9b4:	0f 92       	push	r0
     9b6:	0f b6       	in	r0, 0x3f	; 63
     9b8:	0f 92       	push	r0
     9ba:	0b b6       	in	r0, 0x3b	; 59
     9bc:	0f 92       	push	r0
     9be:	11 24       	eor	r1, r1
     9c0:	2f 93       	push	r18
     9c2:	3f 93       	push	r19
     9c4:	4f 93       	push	r20
     9c6:	5f 93       	push	r21
     9c8:	6f 93       	push	r22
     9ca:	7f 93       	push	r23
     9cc:	8f 93       	push	r24
     9ce:	9f 93       	push	r25
     9d0:	af 93       	push	r26
     9d2:	bf 93       	push	r27
     9d4:	ef 93       	push	r30
     9d6:	ff 93       	push	r31
	checkDistance();
     9d8:	0e 94 8d 04 	call	0x91a	; 0x91a <checkDistance>
}
     9dc:	ff 91       	pop	r31
     9de:	ef 91       	pop	r30
     9e0:	bf 91       	pop	r27
     9e2:	af 91       	pop	r26
     9e4:	9f 91       	pop	r25
     9e6:	8f 91       	pop	r24
     9e8:	7f 91       	pop	r23
     9ea:	6f 91       	pop	r22
     9ec:	5f 91       	pop	r21
     9ee:	4f 91       	pop	r20
     9f0:	3f 91       	pop	r19
     9f2:	2f 91       	pop	r18
     9f4:	0f 90       	pop	r0
     9f6:	0b be       	out	0x3b, r0	; 59
     9f8:	0f 90       	pop	r0
     9fa:	0f be       	out	0x3f, r0	; 63
     9fc:	0f 90       	pop	r0
     9fe:	1f 90       	pop	r1
     a00:	18 95       	reti

00000a02 <display_write>:
     a02:	90 91 65 00 	lds	r25, 0x0065
     a06:	28 2f       	mov	r18, r24
     a08:	30 e0       	ldi	r19, 0x00	; 0
     a0a:	80 e0       	ldi	r24, 0x00	; 0
     a0c:	a9 01       	movw	r20, r18
     a0e:	41 70       	andi	r20, 0x01	; 1
     a10:	50 70       	andi	r21, 0x00	; 0
     a12:	20 ff       	sbrs	r18, 0
     a14:	81 e0       	ldi	r24, 0x01	; 1
     a16:	9e 7f       	andi	r25, 0xFE	; 254
     a18:	98 2b       	or	r25, r24
     a1a:	90 93 65 00 	sts	0x0065, r25
     a1e:	80 91 65 00 	lds	r24, 0x0065
     a22:	41 15       	cp	r20, r1
     a24:	51 05       	cpc	r21, r1
     a26:	11 f4       	brne	.+4      	; 0xa2c <display_write+0x2a>
     a28:	90 e0       	ldi	r25, 0x00	; 0
     a2a:	01 c0       	rjmp	.+2      	; 0xa2e <display_write+0x2c>
     a2c:	92 e0       	ldi	r25, 0x02	; 2
     a2e:	8d 7f       	andi	r24, 0xFD	; 253
     a30:	89 2b       	or	r24, r25
     a32:	80 93 65 00 	sts	0x0065, r24
     a36:	80 91 65 00 	lds	r24, 0x0065
     a3a:	21 fd       	sbrc	r18, 1
     a3c:	02 c0       	rjmp	.+4      	; 0xa42 <display_write+0x40>
     a3e:	90 e0       	ldi	r25, 0x00	; 0
     a40:	01 c0       	rjmp	.+2      	; 0xa44 <display_write+0x42>
     a42:	98 e0       	ldi	r25, 0x08	; 8
     a44:	87 7f       	andi	r24, 0xF7	; 247
     a46:	89 2b       	or	r24, r25
     a48:	80 93 65 00 	sts	0x0065, r24
     a4c:	80 91 65 00 	lds	r24, 0x0065
     a50:	8f 7e       	andi	r24, 0xEF	; 239
     a52:	80 93 65 00 	sts	0x0065, r24
     a56:	8f ef       	ldi	r24, 0xFF	; 255
     a58:	8a bb       	out	0x1a, r24	; 26
     a5a:	6b bb       	out	0x1b, r22	; 27
     a5c:	85 e0       	ldi	r24, 0x05	; 5
     a5e:	98 2f       	mov	r25, r24
     a60:	9a 95       	dec	r25
     a62:	f1 f7       	brne	.-4      	; 0xa60 <display_write+0x5e>
     a64:	90 91 65 00 	lds	r25, 0x0065
     a68:	94 60       	ori	r25, 0x04	; 4
     a6a:	90 93 65 00 	sts	0x0065, r25
     a6e:	98 2f       	mov	r25, r24
     a70:	9a 95       	dec	r25
     a72:	f1 f7       	brne	.-4      	; 0xa70 <display_write+0x6e>
     a74:	90 91 65 00 	lds	r25, 0x0065
     a78:	9b 7f       	andi	r25, 0xFB	; 251
     a7a:	90 93 65 00 	sts	0x0065, r25
     a7e:	8a 95       	dec	r24
     a80:	f1 f7       	brne	.-4      	; 0xa7e <display_write+0x7c>
     a82:	1b ba       	out	0x1b, r1	; 27
     a84:	1a ba       	out	0x1a, r1	; 26
     a86:	08 95       	ret

00000a88 <display_read>:
     a88:	90 91 65 00 	lds	r25, 0x0065
     a8c:	28 2f       	mov	r18, r24
     a8e:	30 e0       	ldi	r19, 0x00	; 0
     a90:	80 e0       	ldi	r24, 0x00	; 0
     a92:	a9 01       	movw	r20, r18
     a94:	41 70       	andi	r20, 0x01	; 1
     a96:	50 70       	andi	r21, 0x00	; 0
     a98:	20 ff       	sbrs	r18, 0
     a9a:	81 e0       	ldi	r24, 0x01	; 1
     a9c:	9e 7f       	andi	r25, 0xFE	; 254
     a9e:	98 2b       	or	r25, r24
     aa0:	90 93 65 00 	sts	0x0065, r25
     aa4:	80 91 65 00 	lds	r24, 0x0065
     aa8:	41 15       	cp	r20, r1
     aaa:	51 05       	cpc	r21, r1
     aac:	11 f4       	brne	.+4      	; 0xab2 <display_read+0x2a>
     aae:	90 e0       	ldi	r25, 0x00	; 0
     ab0:	01 c0       	rjmp	.+2      	; 0xab4 <display_read+0x2c>
     ab2:	92 e0       	ldi	r25, 0x02	; 2
     ab4:	8d 7f       	andi	r24, 0xFD	; 253
     ab6:	89 2b       	or	r24, r25
     ab8:	80 93 65 00 	sts	0x0065, r24
     abc:	80 91 65 00 	lds	r24, 0x0065
     ac0:	21 fd       	sbrc	r18, 1
     ac2:	02 c0       	rjmp	.+4      	; 0xac8 <display_read+0x40>
     ac4:	90 e0       	ldi	r25, 0x00	; 0
     ac6:	01 c0       	rjmp	.+2      	; 0xaca <display_read+0x42>
     ac8:	98 e0       	ldi	r25, 0x08	; 8
     aca:	87 7f       	andi	r24, 0xF7	; 247
     acc:	89 2b       	or	r24, r25
     ace:	80 93 65 00 	sts	0x0065, r24
     ad2:	80 91 65 00 	lds	r24, 0x0065
     ad6:	80 61       	ori	r24, 0x10	; 16
     ad8:	80 93 65 00 	sts	0x0065, r24
     adc:	1a ba       	out	0x1a, r1	; 26
     ade:	25 e0       	ldi	r18, 0x05	; 5
     ae0:	82 2f       	mov	r24, r18
     ae2:	8a 95       	dec	r24
     ae4:	f1 f7       	brne	.-4      	; 0xae2 <display_read+0x5a>
     ae6:	80 91 65 00 	lds	r24, 0x0065
     aea:	84 60       	ori	r24, 0x04	; 4
     aec:	80 93 65 00 	sts	0x0065, r24
     af0:	85 e1       	ldi	r24, 0x15	; 21
     af2:	8a 95       	dec	r24
     af4:	f1 f7       	brne	.-4      	; 0xaf2 <display_read+0x6a>
     af6:	89 b3       	in	r24, 0x19	; 25
     af8:	90 91 65 00 	lds	r25, 0x0065
     afc:	9b 7f       	andi	r25, 0xFB	; 251
     afe:	90 93 65 00 	sts	0x0065, r25
     b02:	92 2f       	mov	r25, r18
     b04:	9a 95       	dec	r25
     b06:	f1 f7       	brne	.-4      	; 0xb04 <display_read+0x7c>
     b08:	08 95       	ret

00000b0a <display_wait>:
     b0a:	1f 93       	push	r17
     b0c:	cf 93       	push	r28
     b0e:	df 93       	push	r29
     b10:	90 91 f6 03 	lds	r25, 0x03F6
     b14:	99 23       	and	r25, r25
     b16:	71 f0       	breq	.+28     	; 0xb34 <display_wait+0x2a>
     b18:	18 2f       	mov	r17, r24
     b1a:	11 70       	andi	r17, 0x01	; 1
     b1c:	cf ef       	ldi	r28, 0xFF	; 255
     b1e:	df ef       	ldi	r29, 0xFF	; 255
     b20:	81 2f       	mov	r24, r17
     b22:	0e 94 44 05 	call	0xa88	; 0xa88 <display_read>
     b26:	21 97       	sbiw	r28, 0x01	; 1
     b28:	87 fd       	sbrc	r24, 7
     b2a:	02 c0       	rjmp	.+4      	; 0xb30 <display_wait+0x26>
     b2c:	81 e0       	ldi	r24, 0x01	; 1
     b2e:	03 c0       	rjmp	.+6      	; 0xb36 <display_wait+0x2c>
     b30:	20 97       	sbiw	r28, 0x00	; 0
     b32:	b1 f7       	brne	.-20     	; 0xb20 <display_wait+0x16>
     b34:	80 e0       	ldi	r24, 0x00	; 0
     b36:	df 91       	pop	r29
     b38:	cf 91       	pop	r28
     b3a:	1f 91       	pop	r17
     b3c:	08 95       	ret

00000b3e <display_init>:
     b3e:	8f ef       	ldi	r24, 0xFF	; 255
     b40:	80 93 f6 03 	sts	0x03F6, r24
     b44:	80 91 64 00 	lds	r24, 0x0064
     b48:	88 60       	ori	r24, 0x08	; 8
     b4a:	80 93 64 00 	sts	0x0064, r24
     b4e:	80 91 64 00 	lds	r24, 0x0064
     b52:	80 61       	ori	r24, 0x10	; 16
     b54:	80 93 64 00 	sts	0x0064, r24
     b58:	80 91 64 00 	lds	r24, 0x0064
     b5c:	84 60       	ori	r24, 0x04	; 4
     b5e:	80 93 64 00 	sts	0x0064, r24
     b62:	80 91 64 00 	lds	r24, 0x0064
     b66:	81 60       	ori	r24, 0x01	; 1
     b68:	80 93 64 00 	sts	0x0064, r24
     b6c:	80 91 64 00 	lds	r24, 0x0064
     b70:	82 60       	ori	r24, 0x02	; 2
     b72:	80 93 64 00 	sts	0x0064, r24
     b76:	b8 9a       	sbi	0x17, 0	; 23
     b78:	1a ba       	out	0x1a, r1	; 26
     b7a:	80 91 65 00 	lds	r24, 0x0065
     b7e:	87 7f       	andi	r24, 0xF7	; 247
     b80:	80 93 65 00 	sts	0x0065, r24
     b84:	80 91 65 00 	lds	r24, 0x0065
     b88:	8f 7e       	andi	r24, 0xEF	; 239
     b8a:	80 93 65 00 	sts	0x0065, r24
     b8e:	80 91 65 00 	lds	r24, 0x0065
     b92:	8b 7f       	andi	r24, 0xFB	; 251
     b94:	80 93 65 00 	sts	0x0065, r24
     b98:	80 91 65 00 	lds	r24, 0x0065
     b9c:	8e 7f       	andi	r24, 0xFE	; 254
     b9e:	80 93 65 00 	sts	0x0065, r24
     ba2:	80 91 65 00 	lds	r24, 0x0065
     ba6:	8d 7f       	andi	r24, 0xFD	; 253
     ba8:	80 93 65 00 	sts	0x0065, r24
     bac:	c0 98       	cbi	0x18, 0	; 24
     bae:	97 9b       	sbis	0x12, 7	; 18
     bb0:	07 c0       	rjmp	.+14     	; 0xbc0 <display_init+0x82>
     bb2:	97 98       	cbi	0x12, 7	; 18
     bb4:	80 ea       	ldi	r24, 0xA0	; 160
     bb6:	9f e0       	ldi	r25, 0x0F	; 15
     bb8:	01 97       	sbiw	r24, 0x01	; 1
     bba:	f1 f7       	brne	.-4      	; 0xbb8 <display_init+0x7a>
     bbc:	97 9a       	sbi	0x12, 7	; 18
     bbe:	04 c0       	rjmp	.+8      	; 0xbc8 <display_init+0x8a>
     bc0:	80 ea       	ldi	r24, 0xA0	; 160
     bc2:	9f e0       	ldi	r25, 0x0F	; 15
     bc4:	01 97       	sbiw	r24, 0x01	; 1
     bc6:	f1 f7       	brne	.-4      	; 0xbc4 <display_init+0x86>
     bc8:	c0 9a       	sbi	0x18, 0	; 24
     bca:	80 e0       	ldi	r24, 0x00	; 0
     bcc:	0e 94 85 05 	call	0xb0a	; 0xb0a <display_wait>
     bd0:	88 23       	and	r24, r24
     bd2:	51 f0       	breq	.+20     	; 0xbe8 <display_init+0xaa>
     bd4:	81 e0       	ldi	r24, 0x01	; 1
     bd6:	0e 94 85 05 	call	0xb0a	; 0xb0a <display_wait>
     bda:	88 23       	and	r24, r24
     bdc:	11 f0       	breq	.+4      	; 0xbe2 <display_init+0xa4>
     bde:	82 e0       	ldi	r24, 0x02	; 2
     be0:	01 c0       	rjmp	.+2      	; 0xbe4 <display_init+0xa6>
     be2:	81 e0       	ldi	r24, 0x01	; 1
     be4:	80 93 f6 03 	sts	0x03F6, r24
     be8:	80 91 f6 03 	lds	r24, 0x03F6
     bec:	8f 3f       	cpi	r24, 0xFF	; 255
     bee:	11 f4       	brne	.+4      	; 0xbf4 <display_init+0xb6>
     bf0:	10 92 f6 03 	sts	0x03F6, r1
     bf4:	80 91 f6 03 	lds	r24, 0x03F6
     bf8:	08 95       	ret

00000bfa <pwm_init>:
     bfa:	10 92 00 04 	sts	0x0400, r1
     bfe:	10 92 ff 03 	sts	0x03FF, r1
     c02:	10 92 fc 03 	sts	0x03FC, r1
     c06:	10 92 fb 03 	sts	0x03FB, r1
     c0a:	10 92 01 04 	sts	0x0401, r1
     c0e:	10 92 02 04 	sts	0x0402, r1
     c12:	10 92 03 04 	sts	0x0403, r1
     c16:	10 92 04 04 	sts	0x0404, r1
     c1a:	10 92 f8 03 	sts	0x03F8, r1
     c1e:	10 92 f7 03 	sts	0x03F7, r1
     c22:	10 92 fa 03 	sts	0x03FA, r1
     c26:	10 92 f9 03 	sts	0x03F9, r1
     c2a:	8f ef       	ldi	r24, 0xFF	; 255
     c2c:	93 e0       	ldi	r25, 0x03	; 3
     c2e:	90 93 fe 03 	sts	0x03FE, r25
     c32:	80 93 fd 03 	sts	0x03FD, r24
     c36:	c5 98       	cbi	0x18, 5	; 24
     c38:	c6 98       	cbi	0x18, 6	; 24
     c3a:	bd 9a       	sbi	0x17, 5	; 23
     c3c:	be 9a       	sbi	0x17, 6	; 23
     c3e:	bf 9a       	sbi	0x17, 7	; 23
     c40:	c7 9a       	sbi	0x18, 7	; 24
     c42:	1d bc       	out	0x2d, r1	; 45
     c44:	1c bc       	out	0x2c, r1	; 44
     c46:	8a ea       	ldi	r24, 0xAA	; 170
     c48:	8f bd       	out	0x2f, r24	; 47
     c4a:	82 e1       	ldi	r24, 0x12	; 18
     c4c:	8e bd       	out	0x2e, r24	; 46
     c4e:	80 e0       	ldi	r24, 0x00	; 0
     c50:	94 e0       	ldi	r25, 0x04	; 4
     c52:	97 bd       	out	0x27, r25	; 39
     c54:	86 bd       	out	0x26, r24	; 38
     c56:	87 b7       	in	r24, 0x37	; 55
     c58:	84 60       	ori	r24, 0x04	; 4
     c5a:	87 bf       	out	0x37, r24	; 55
     c5c:	08 95       	ret

00000c5e <__vector_14>:
     c5e:	1f 92       	push	r1
     c60:	0f 92       	push	r0
     c62:	0f b6       	in	r0, 0x3f	; 63
     c64:	0f 92       	push	r0
     c66:	11 24       	eor	r1, r1
     c68:	2f 93       	push	r18
     c6a:	3f 93       	push	r19
     c6c:	4f 93       	push	r20
     c6e:	8f 93       	push	r24
     c70:	9f 93       	push	r25
     c72:	af 93       	push	r26
     c74:	bf 93       	push	r27
     c76:	80 91 ff 03 	lds	r24, 0x03FF
     c7a:	90 91 00 04 	lds	r25, 0x0400
     c7e:	9c 01       	movw	r18, r24
     c80:	28 5e       	subi	r18, 0xE8	; 232
     c82:	3f 4f       	sbci	r19, 0xFF	; 255
     c84:	30 93 00 04 	sts	0x0400, r19
     c88:	20 93 ff 03 	sts	0x03FF, r18
     c8c:	43 e0       	ldi	r20, 0x03	; 3
     c8e:	28 3e       	cpi	r18, 0xE8	; 232
     c90:	34 07       	cpc	r19, r20
     c92:	78 f0       	brcs	.+30     	; 0xcb2 <__vector_14+0x54>
     c94:	80 5d       	subi	r24, 0xD0	; 208
     c96:	93 40       	sbci	r25, 0x03	; 3
     c98:	90 93 00 04 	sts	0x0400, r25
     c9c:	80 93 ff 03 	sts	0x03FF, r24
     ca0:	80 91 fb 03 	lds	r24, 0x03FB
     ca4:	90 91 fc 03 	lds	r25, 0x03FC
     ca8:	01 96       	adiw	r24, 0x01	; 1
     caa:	90 93 fc 03 	sts	0x03FC, r25
     cae:	80 93 fb 03 	sts	0x03FB, r24
     cb2:	80 91 fb 03 	lds	r24, 0x03FB
     cb6:	90 91 fc 03 	lds	r25, 0x03FC
     cba:	9c 01       	movw	r18, r24
     cbc:	2f 5f       	subi	r18, 0xFF	; 255
     cbe:	3f 4f       	sbci	r19, 0xFF	; 255
     cc0:	30 93 fc 03 	sts	0x03FC, r19
     cc4:	20 93 fb 03 	sts	0x03FB, r18
     cc8:	43 e0       	ldi	r20, 0x03	; 3
     cca:	28 3e       	cpi	r18, 0xE8	; 232
     ccc:	34 07       	cpc	r19, r20
     cce:	c8 f0       	brcs	.+50     	; 0xd02 <__vector_14+0xa4>
     cd0:	87 5e       	subi	r24, 0xE7	; 231
     cd2:	93 40       	sbci	r25, 0x03	; 3
     cd4:	90 93 fc 03 	sts	0x03FC, r25
     cd8:	80 93 fb 03 	sts	0x03FB, r24
     cdc:	80 91 01 04 	lds	r24, 0x0401
     ce0:	90 91 02 04 	lds	r25, 0x0402
     ce4:	a0 91 03 04 	lds	r26, 0x0403
     ce8:	b0 91 04 04 	lds	r27, 0x0404
     cec:	01 96       	adiw	r24, 0x01	; 1
     cee:	a1 1d       	adc	r26, r1
     cf0:	b1 1d       	adc	r27, r1
     cf2:	80 93 01 04 	sts	0x0401, r24
     cf6:	90 93 02 04 	sts	0x0402, r25
     cfa:	a0 93 03 04 	sts	0x0403, r26
     cfe:	b0 93 04 04 	sts	0x0404, r27
     d02:	80 91 f7 03 	lds	r24, 0x03F7
     d06:	90 91 f8 03 	lds	r25, 0x03F8
     d0a:	23 e0       	ldi	r18, 0x03	; 3
     d0c:	8f 3f       	cpi	r24, 0xFF	; 255
     d0e:	92 07       	cpc	r25, r18
     d10:	10 f0       	brcs	.+4      	; 0xd16 <__vector_14+0xb8>
     d12:	80 e0       	ldi	r24, 0x00	; 0
     d14:	94 e0       	ldi	r25, 0x04	; 4
     d16:	9b bd       	out	0x2b, r25	; 43
     d18:	8a bd       	out	0x2a, r24	; 42
     d1a:	80 91 f9 03 	lds	r24, 0x03F9
     d1e:	90 91 fa 03 	lds	r25, 0x03FA
     d22:	43 e0       	ldi	r20, 0x03	; 3
     d24:	8f 3f       	cpi	r24, 0xFF	; 255
     d26:	94 07       	cpc	r25, r20
     d28:	10 f0       	brcs	.+4      	; 0xd2e <__vector_14+0xd0>
     d2a:	80 e0       	ldi	r24, 0x00	; 0
     d2c:	94 e0       	ldi	r25, 0x04	; 4
     d2e:	99 bd       	out	0x29, r25	; 41
     d30:	88 bd       	out	0x28, r24	; 40
     d32:	80 91 fd 03 	lds	r24, 0x03FD
     d36:	90 91 fe 03 	lds	r25, 0x03FE
     d3a:	23 e0       	ldi	r18, 0x03	; 3
     d3c:	8f 3f       	cpi	r24, 0xFF	; 255
     d3e:	92 07       	cpc	r25, r18
     d40:	10 f0       	brcs	.+4      	; 0xd46 <__vector_14+0xe8>
     d42:	80 e0       	ldi	r24, 0x00	; 0
     d44:	94 e0       	ldi	r25, 0x04	; 4
     d46:	90 93 79 00 	sts	0x0079, r25
     d4a:	80 93 78 00 	sts	0x0078, r24
     d4e:	bf 91       	pop	r27
     d50:	af 91       	pop	r26
     d52:	9f 91       	pop	r25
     d54:	8f 91       	pop	r24
     d56:	4f 91       	pop	r20
     d58:	3f 91       	pop	r19
     d5a:	2f 91       	pop	r18
     d5c:	0f 90       	pop	r0
     d5e:	0f be       	out	0x3f, r0	; 63
     d60:	0f 90       	pop	r0
     d62:	1f 90       	pop	r1
     d64:	18 95       	reti

00000d66 <delay>:
     d66:	20 ea       	ldi	r18, 0xA0	; 160
     d68:	3f e0       	ldi	r19, 0x0F	; 15
     d6a:	04 c0       	rjmp	.+8      	; 0xd74 <delay+0xe>
     d6c:	f9 01       	movw	r30, r18
     d6e:	31 97       	sbiw	r30, 0x01	; 1
     d70:	f1 f7       	brne	.-4      	; 0xd6e <delay+0x8>
     d72:	01 97       	sbiw	r24, 0x01	; 1
     d74:	00 97       	sbiw	r24, 0x00	; 0
     d76:	d1 f7       	brne	.-12     	; 0xd6c <delay+0x6>
     d78:	08 95       	ret

00000d7a <spi_restart_transmission>:
     d7a:	10 92 41 04 	sts	0x0441, r1
     d7e:	80 93 22 04 	sts	0x0422, r24
     d82:	98 2f       	mov	r25, r24
     d84:	9f 5f       	subi	r25, 0xFF	; 255
     d86:	90 93 24 04 	sts	0x0424, r25
     d8a:	96 e9       	ldi	r25, 0x96	; 150
     d8c:	90 93 42 04 	sts	0x0442, r25
     d90:	f8 94       	cli
     d92:	03 c0       	rjmp	.+6      	; 0xd9a <spi_restart_transmission+0x20>
     d94:	78 94       	sei
     d96:	00 00       	nop
     d98:	f8 94       	cli
     d9a:	b0 9b       	sbis	0x16, 0	; 22
     d9c:	fb cf       	rjmp	.-10     	; 0xd94 <spi_restart_transmission+0x1a>
     d9e:	90 ec       	ldi	r25, 0xC0	; 192
     da0:	9d b9       	out	0x0d, r25	; 13
     da2:	8f b9       	out	0x0f, r24	; 15
     da4:	96 e9       	ldi	r25, 0x96	; 150
     da6:	98 27       	eor	r25, r24
     da8:	90 93 40 04 	sts	0x0440, r25
     dac:	77 9a       	sbi	0x0e, 7	; 14
     dae:	78 94       	sei
     db0:	80 e0       	ldi	r24, 0x00	; 0
     db2:	08 95       	ret

00000db4 <spi_init>:
     db4:	b8 98       	cbi	0x17, 0	; 23
     db6:	c0 98       	cbi	0x18, 0	; 24
     db8:	bb 9a       	sbi	0x17, 3	; 23
     dba:	c3 9a       	sbi	0x18, 3	; 24
     dbc:	80 e0       	ldi	r24, 0x00	; 0
     dbe:	0e 94 bd 06 	call	0xd7a	; 0xd7a <spi_restart_transmission>
     dc2:	08 95       	ret

00000dc4 <__vector_17>:
     dc4:	1f 92       	push	r1
     dc6:	0f 92       	push	r0
     dc8:	0f b6       	in	r0, 0x3f	; 63
     dca:	0f 92       	push	r0
     dcc:	0b b6       	in	r0, 0x3b	; 59
     dce:	0f 92       	push	r0
     dd0:	11 24       	eor	r1, r1
     dd2:	2f 93       	push	r18
     dd4:	3f 93       	push	r19
     dd6:	4f 93       	push	r20
     dd8:	5f 93       	push	r21
     dda:	6f 93       	push	r22
     ddc:	7f 93       	push	r23
     dde:	8f 93       	push	r24
     de0:	9f 93       	push	r25
     de2:	af 93       	push	r26
     de4:	bf 93       	push	r27
     de6:	ef 93       	push	r30
     de8:	ff 93       	push	r31
     dea:	9f b1       	in	r25, 0x0f	; 15
     dec:	20 91 42 04 	lds	r18, 0x0442
     df0:	29 27       	eor	r18, r25
     df2:	20 93 42 04 	sts	0x0442, r18
     df6:	80 91 41 04 	lds	r24, 0x0441
     dfa:	88 23       	and	r24, r24
     dfc:	b1 f4       	brne	.+44     	; 0xe2a <__vector_17+0x66>
     dfe:	90 93 20 04 	sts	0x0420, r25
     e02:	9c 31       	cpi	r25, 0x1C	; 28
     e04:	30 f0       	brcs	.+12     	; 0xe12 <__vector_17+0x4e>
     e06:	10 92 22 04 	sts	0x0422, r1
     e0a:	10 92 20 04 	sts	0x0420, r1
     e0e:	91 e0       	ldi	r25, 0x01	; 1
     e10:	09 c0       	rjmp	.+18     	; 0xe24 <__vector_17+0x60>
     e12:	49 2f       	mov	r20, r25
     e14:	50 e0       	ldi	r21, 0x00	; 0
     e16:	20 91 24 04 	lds	r18, 0x0424
     e1a:	30 e0       	ldi	r19, 0x00	; 0
     e1c:	42 17       	cp	r20, r18
     e1e:	53 07       	cpc	r21, r19
     e20:	fc f0       	brlt	.+62     	; 0xe60 <__vector_17+0x9c>
     e22:	9f 5f       	subi	r25, 0xFF	; 255
     e24:	90 93 24 04 	sts	0x0424, r25
     e28:	1b c0       	rjmp	.+54     	; 0xe60 <__vector_17+0x9c>
     e2a:	48 2f       	mov	r20, r24
     e2c:	50 e0       	ldi	r21, 0x00	; 0
     e2e:	60 91 20 04 	lds	r22, 0x0420
     e32:	70 e0       	ldi	r23, 0x00	; 0
     e34:	64 17       	cp	r22, r20
     e36:	75 07       	cpc	r23, r21
     e38:	2c f0       	brlt	.+10     	; 0xe44 <__vector_17+0x80>
     e3a:	4c 5d       	subi	r20, 0xDC	; 220
     e3c:	5b 4f       	sbci	r21, 0xFB	; 251
     e3e:	fa 01       	movw	r30, r20
     e40:	90 83       	st	Z, r25
     e42:	0e c0       	rjmp	.+28     	; 0xe60 <__vector_17+0x9c>
     e44:	41 50       	subi	r20, 0x01	; 1
     e46:	50 40       	sbci	r21, 0x00	; 0
     e48:	46 17       	cp	r20, r22
     e4a:	57 07       	cpc	r21, r23
     e4c:	49 f4       	brne	.+18     	; 0xe60 <__vector_17+0x9c>
     e4e:	22 23       	and	r18, r18
     e50:	39 f0       	breq	.+14     	; 0xe60 <__vector_17+0x9c>
     e52:	90 91 21 04 	lds	r25, 0x0421
     e56:	9f 5f       	subi	r25, 0xFF	; 255
     e58:	90 93 21 04 	sts	0x0421, r25
     e5c:	10 92 20 04 	sts	0x0420, r1
     e60:	90 91 22 04 	lds	r25, 0x0422
     e64:	89 17       	cp	r24, r25
     e66:	50 f4       	brcc	.+20     	; 0xe7c <__vector_17+0xb8>
     e68:	e8 2f       	mov	r30, r24
     e6a:	f0 e0       	ldi	r31, 0x00	; 0
     e6c:	eb 5f       	subi	r30, 0xFB	; 251
     e6e:	fb 4f       	sbci	r31, 0xFB	; 251
     e70:	20 81       	ld	r18, Z
     e72:	2f b9       	out	0x0f, r18	; 15
     e74:	90 91 40 04 	lds	r25, 0x0440
     e78:	92 27       	eor	r25, r18
     e7a:	11 c0       	rjmp	.+34     	; 0xe9e <__vector_17+0xda>
     e7c:	89 17       	cp	r24, r25
     e7e:	31 f4       	brne	.+12     	; 0xe8c <__vector_17+0xc8>
     e80:	90 91 40 04 	lds	r25, 0x0440
     e84:	9f b9       	out	0x0f, r25	; 15
     e86:	10 92 40 04 	sts	0x0440, r1
     e8a:	0b c0       	rjmp	.+22     	; 0xea2 <__vector_17+0xde>
     e8c:	90 91 24 04 	lds	r25, 0x0424
     e90:	89 17       	cp	r24, r25
     e92:	58 f4       	brcc	.+22     	; 0xeaa <__vector_17+0xe6>
     e94:	9f ef       	ldi	r25, 0xFF	; 255
     e96:	9f b9       	out	0x0f, r25	; 15
     e98:	90 91 40 04 	lds	r25, 0x0440
     e9c:	90 95       	com	r25
     e9e:	90 93 40 04 	sts	0x0440, r25
     ea2:	8f 5f       	subi	r24, 0xFF	; 255
     ea4:	80 93 41 04 	sts	0x0441, r24
     ea8:	11 c0       	rjmp	.+34     	; 0xecc <__vector_17+0x108>
     eaa:	b8 98       	cbi	0x17, 0	; 23
     eac:	c0 98       	cbi	0x18, 0	; 24
     eae:	1d b8       	out	0x0d, r1	; 13
     eb0:	b8 98       	cbi	0x17, 0	; 23
     eb2:	c0 98       	cbi	0x18, 0	; 24
     eb4:	80 91 23 04 	lds	r24, 0x0423
     eb8:	8f 5f       	subi	r24, 0xFF	; 255
     eba:	80 93 23 04 	sts	0x0423, r24
     ebe:	78 94       	sei
     ec0:	80 91 20 04 	lds	r24, 0x0420
     ec4:	0e 94 c8 0e 	call	0x1d90	; 0x1d90 <spi_finished_callback>
     ec8:	0e 94 bd 06 	call	0xd7a	; 0xd7a <spi_restart_transmission>
     ecc:	ff 91       	pop	r31
     ece:	ef 91       	pop	r30
     ed0:	bf 91       	pop	r27
     ed2:	af 91       	pop	r26
     ed4:	9f 91       	pop	r25
     ed6:	8f 91       	pop	r24
     ed8:	7f 91       	pop	r23
     eda:	6f 91       	pop	r22
     edc:	5f 91       	pop	r21
     ede:	4f 91       	pop	r20
     ee0:	3f 91       	pop	r19
     ee2:	2f 91       	pop	r18
     ee4:	0f 90       	pop	r0
     ee6:	0b be       	out	0x3b, r0	; 59
     ee8:	0f 90       	pop	r0
     eea:	0f be       	out	0x3f, r0	; 63
     eec:	0f 90       	pop	r0
     eee:	1f 90       	pop	r1
     ef0:	18 95       	reti

00000ef2 <gfx_get_x>:
     ef2:	80 91 46 04 	lds	r24, 0x0446
     ef6:	08 95       	ret

00000ef8 <gfx_get_y>:
     ef8:	80 91 4f 04 	lds	r24, 0x044F
     efc:	08 95       	ret

00000efe <gfx_draw_mode>:
     efe:	80 93 43 04 	sts	0x0443, r24
     f02:	08 95       	ret

00000f04 <gfx_char_width>:
     f04:	98 2f       	mov	r25, r24
     f06:	90 52       	subi	r25, 0x20	; 32
     f08:	90 36       	cpi	r25, 0x60	; 96
     f0a:	08 f0       	brcs	.+2      	; 0xf0e <gfx_char_width+0xa>
     f0c:	80 e8       	ldi	r24, 0x80	; 128
     f0e:	80 52       	subi	r24, 0x20	; 32
     f10:	90 e0       	ldi	r25, 0x00	; 0
     f12:	fc 01       	movw	r30, r24
     f14:	ee 0f       	add	r30, r30
     f16:	ff 1f       	adc	r31, r31
     f18:	e8 0f       	add	r30, r24
     f1a:	f9 1f       	adc	r31, r25
     f1c:	ee 0f       	add	r30, r30
     f1e:	ff 1f       	adc	r31, r31
     f20:	e1 57       	subi	r30, 0x71	; 113
     f22:	fe 4f       	sbci	r31, 0xFE	; 254
     f24:	90 81       	ld	r25, Z
     f26:	80 91 45 04 	lds	r24, 0x0445
     f2a:	88 23       	and	r24, r24
     f2c:	09 f4       	brne	.+2      	; 0xf30 <gfx_char_width+0x2c>
     f2e:	9f e1       	ldi	r25, 0x1F	; 31
     f30:	80 e0       	ldi	r24, 0x00	; 0
     f32:	20 e0       	ldi	r18, 0x00	; 0
     f34:	90 fd       	sbrc	r25, 0
     f36:	8f 5f       	subi	r24, 0xFF	; 255
     f38:	2f 5f       	subi	r18, 0xFF	; 255
     f3a:	25 30       	cpi	r18, 0x05	; 5
     f3c:	11 f0       	breq	.+4      	; 0xf42 <gfx_char_width+0x3e>
     f3e:	96 95       	lsr	r25
     f40:	f9 cf       	rjmp	.-14     	; 0xf34 <gfx_char_width+0x30>
     f42:	08 95       	ret

00000f44 <gfx_text_width>:
     f44:	1f 93       	push	r17
     f46:	cf 93       	push	r28
     f48:	df 93       	push	r29
     f4a:	ec 01       	movw	r28, r24
     f4c:	10 e0       	ldi	r17, 0x00	; 0
     f4e:	05 c0       	rjmp	.+10     	; 0xf5a <gfx_text_width+0x16>
     f50:	21 96       	adiw	r28, 0x01	; 1
     f52:	0e 94 82 07 	call	0xf04	; 0xf04 <gfx_char_width>
     f56:	8f 5f       	subi	r24, 0xFF	; 255
     f58:	18 0f       	add	r17, r24
     f5a:	88 81       	ld	r24, Y
     f5c:	88 23       	and	r24, r24
     f5e:	c1 f7       	brne	.-16     	; 0xf50 <gfx_text_width+0xc>
     f60:	81 2f       	mov	r24, r17
     f62:	df 91       	pop	r29
     f64:	cf 91       	pop	r28
     f66:	1f 91       	pop	r17
     f68:	08 95       	ret

00000f6a <gfx_text_width_P>:
     f6a:	1f 93       	push	r17
     f6c:	cf 93       	push	r28
     f6e:	df 93       	push	r29
     f70:	ec 01       	movw	r28, r24
     f72:	10 e0       	ldi	r17, 0x00	; 0
     f74:	07 c0       	rjmp	.+14     	; 0xf84 <gfx_text_width_P+0x1a>
     f76:	21 96       	adiw	r28, 0x01	; 1
     f78:	f9 01       	movw	r30, r18
     f7a:	84 91       	lpm	r24, Z+
     f7c:	0e 94 82 07 	call	0xf04	; 0xf04 <gfx_char_width>
     f80:	8f 5f       	subi	r24, 0xFF	; 255
     f82:	18 0f       	add	r17, r24
     f84:	9e 01       	movw	r18, r28
     f86:	fe 01       	movw	r30, r28
     f88:	94 91       	lpm	r25, Z+
     f8a:	99 23       	and	r25, r25
     f8c:	a1 f7       	brne	.-24     	; 0xf76 <gfx_text_width_P+0xc>
     f8e:	81 2f       	mov	r24, r17
     f90:	df 91       	pop	r29
     f92:	cf 91       	pop	r28
     f94:	1f 91       	pop	r17
     f96:	08 95       	ret

00000f98 <gfx_set_proportional>:
     f98:	80 93 45 04 	sts	0x0445, r24
     f9c:	08 95       	ret

00000f9e <gfx_get_proportional>:
     f9e:	80 91 45 04 	lds	r24, 0x0445
     fa2:	08 95       	ret

00000fa4 <gfx_term_goto>:
     fa4:	86 31       	cpi	r24, 0x16	; 22
     fa6:	30 f4       	brcc	.+12     	; 0xfb4 <gfx_term_goto+0x10>
     fa8:	68 30       	cpi	r22, 0x08	; 8
     faa:	20 f4       	brcc	.+8      	; 0xfb4 <gfx_term_goto+0x10>
     fac:	60 93 44 04 	sts	0x0444, r22
     fb0:	80 93 50 04 	sts	0x0450, r24
     fb4:	08 95       	ret

00000fb6 <gfx_store_disp_tile>:
     fb6:	0f 93       	push	r16
     fb8:	1f 93       	push	r17
     fba:	df 93       	push	r29
     fbc:	cf 93       	push	r28
     fbe:	0f 92       	push	r0
     fc0:	cd b7       	in	r28, 0x3d	; 61
     fc2:	de b7       	in	r29, 0x3e	; 62
     fc4:	18 2f       	mov	r17, r24
     fc6:	68 54       	subi	r22, 0x48	; 72
     fc8:	88 30       	cpi	r24, 0x08	; 8
     fca:	18 f5       	brcc	.+70     	; 0x1012 <gfx_store_disp_tile+0x5c>
     fcc:	80 e0       	ldi	r24, 0x00	; 0
     fce:	69 83       	std	Y+1, r22	; 0x01
     fd0:	0e 94 85 05 	call	0xb0a	; 0xb0a <display_wait>
     fd4:	80 e0       	ldi	r24, 0x00	; 0
     fd6:	69 81       	ldd	r22, Y+1	; 0x01
     fd8:	0e 94 01 05 	call	0xa02	; 0xa02 <display_write>
     fdc:	80 e0       	ldi	r24, 0x00	; 0
     fde:	0e 94 85 05 	call	0xb0a	; 0xb0a <display_wait>
     fe2:	61 2f       	mov	r22, r17
     fe4:	66 0f       	add	r22, r22
     fe6:	66 0f       	add	r22, r22
     fe8:	66 0f       	add	r22, r22
     fea:	60 5c       	subi	r22, 0xC0	; 192
     fec:	80 e0       	ldi	r24, 0x00	; 0
     fee:	0e 94 01 05 	call	0xa02	; 0xa02 <display_write>
     ff2:	07 e4       	ldi	r16, 0x47	; 71
     ff4:	14 e0       	ldi	r17, 0x04	; 4
     ff6:	82 e0       	ldi	r24, 0x02	; 2
     ff8:	0e 94 85 05 	call	0xb0a	; 0xb0a <display_wait>
     ffc:	82 e0       	ldi	r24, 0x02	; 2
     ffe:	f8 01       	movw	r30, r16
    1000:	61 91       	ld	r22, Z+
    1002:	8f 01       	movw	r16, r30
    1004:	0e 94 01 05 	call	0xa02	; 0xa02 <display_write>
    1008:	f4 e0       	ldi	r31, 0x04	; 4
    100a:	0f 34       	cpi	r16, 0x4F	; 79
    100c:	1f 07       	cpc	r17, r31
    100e:	99 f7       	brne	.-26     	; 0xff6 <gfx_store_disp_tile+0x40>
    1010:	23 c0       	rjmp	.+70     	; 0x1058 <gfx_store_disp_tile+0xa2>
    1012:	18 50       	subi	r17, 0x08	; 8
    1014:	81 e0       	ldi	r24, 0x01	; 1
    1016:	69 83       	std	Y+1, r22	; 0x01
    1018:	0e 94 85 05 	call	0xb0a	; 0xb0a <display_wait>
    101c:	81 e0       	ldi	r24, 0x01	; 1
    101e:	69 81       	ldd	r22, Y+1	; 0x01
    1020:	0e 94 01 05 	call	0xa02	; 0xa02 <display_write>
    1024:	81 e0       	ldi	r24, 0x01	; 1
    1026:	0e 94 85 05 	call	0xb0a	; 0xb0a <display_wait>
    102a:	61 2f       	mov	r22, r17
    102c:	66 0f       	add	r22, r22
    102e:	66 0f       	add	r22, r22
    1030:	66 0f       	add	r22, r22
    1032:	60 5c       	subi	r22, 0xC0	; 192
    1034:	81 e0       	ldi	r24, 0x01	; 1
    1036:	0e 94 01 05 	call	0xa02	; 0xa02 <display_write>
    103a:	07 e4       	ldi	r16, 0x47	; 71
    103c:	14 e0       	ldi	r17, 0x04	; 4
    103e:	83 e0       	ldi	r24, 0x03	; 3
    1040:	0e 94 85 05 	call	0xb0a	; 0xb0a <display_wait>
    1044:	83 e0       	ldi	r24, 0x03	; 3
    1046:	f8 01       	movw	r30, r16
    1048:	61 91       	ld	r22, Z+
    104a:	8f 01       	movw	r16, r30
    104c:	0e 94 01 05 	call	0xa02	; 0xa02 <display_write>
    1050:	f4 e0       	ldi	r31, 0x04	; 4
    1052:	0f 34       	cpi	r16, 0x4F	; 79
    1054:	1f 07       	cpc	r17, r31
    1056:	99 f7       	brne	.-26     	; 0x103e <gfx_store_disp_tile+0x88>
    1058:	0f 90       	pop	r0
    105a:	cf 91       	pop	r28
    105c:	df 91       	pop	r29
    105e:	1f 91       	pop	r17
    1060:	0f 91       	pop	r16
    1062:	08 95       	ret

00001064 <gfx_fill>:
    1064:	ff 92       	push	r15
    1066:	0f 93       	push	r16
    1068:	1f 93       	push	r17
    106a:	f8 2e       	mov	r15, r24
    106c:	18 eb       	ldi	r17, 0xB8	; 184
    106e:	80 e0       	ldi	r24, 0x00	; 0
    1070:	0e 94 85 05 	call	0xb0a	; 0xb0a <display_wait>
    1074:	81 e0       	ldi	r24, 0x01	; 1
    1076:	0e 94 85 05 	call	0xb0a	; 0xb0a <display_wait>
    107a:	80 e0       	ldi	r24, 0x00	; 0
    107c:	61 2f       	mov	r22, r17
    107e:	0e 94 01 05 	call	0xa02	; 0xa02 <display_write>
    1082:	81 e0       	ldi	r24, 0x01	; 1
    1084:	61 2f       	mov	r22, r17
    1086:	0e 94 01 05 	call	0xa02	; 0xa02 <display_write>
    108a:	00 e0       	ldi	r16, 0x00	; 0
    108c:	82 e0       	ldi	r24, 0x02	; 2
    108e:	0e 94 85 05 	call	0xb0a	; 0xb0a <display_wait>
    1092:	83 e0       	ldi	r24, 0x03	; 3
    1094:	0e 94 85 05 	call	0xb0a	; 0xb0a <display_wait>
    1098:	82 e0       	ldi	r24, 0x02	; 2
    109a:	6f 2d       	mov	r22, r15
    109c:	0e 94 01 05 	call	0xa02	; 0xa02 <display_write>
    10a0:	83 e0       	ldi	r24, 0x03	; 3
    10a2:	6f 2d       	mov	r22, r15
    10a4:	0e 94 01 05 	call	0xa02	; 0xa02 <display_write>
    10a8:	0f 5f       	subi	r16, 0xFF	; 255
    10aa:	00 34       	cpi	r16, 0x40	; 64
    10ac:	79 f7       	brne	.-34     	; 0x108c <gfx_fill+0x28>
    10ae:	1f 5f       	subi	r17, 0xFF	; 255
    10b0:	10 3c       	cpi	r17, 0xC0	; 192
    10b2:	e9 f6       	brne	.-70     	; 0x106e <gfx_fill+0xa>
    10b4:	80 e0       	ldi	r24, 0x00	; 0
    10b6:	0e 94 85 05 	call	0xb0a	; 0xb0a <display_wait>
    10ba:	81 e0       	ldi	r24, 0x01	; 1
    10bc:	0e 94 85 05 	call	0xb0a	; 0xb0a <display_wait>
    10c0:	80 e0       	ldi	r24, 0x00	; 0
    10c2:	68 eb       	ldi	r22, 0xB8	; 184
    10c4:	0e 94 01 05 	call	0xa02	; 0xa02 <display_write>
    10c8:	81 e0       	ldi	r24, 0x01	; 1
    10ca:	68 eb       	ldi	r22, 0xB8	; 184
    10cc:	0e 94 01 05 	call	0xa02	; 0xa02 <display_write>
    10d0:	1f 91       	pop	r17
    10d2:	0f 91       	pop	r16
    10d4:	ff 90       	pop	r15
    10d6:	08 95       	ret

000010d8 <gfx_term_clear>:
    10d8:	80 e0       	ldi	r24, 0x00	; 0
    10da:	0e 94 32 08 	call	0x1064	; 0x1064 <gfx_fill>
    10de:	10 92 44 04 	sts	0x0444, r1
    10e2:	10 92 50 04 	sts	0x0450, r1
    10e6:	08 95       	ret

000010e8 <gfx_init>:
    10e8:	80 e0       	ldi	r24, 0x00	; 0
    10ea:	0e 94 85 05 	call	0xb0a	; 0xb0a <display_wait>
    10ee:	80 e0       	ldi	r24, 0x00	; 0
    10f0:	6f e3       	ldi	r22, 0x3F	; 63
    10f2:	0e 94 01 05 	call	0xa02	; 0xa02 <display_write>
    10f6:	80 e0       	ldi	r24, 0x00	; 0
    10f8:	0e 94 85 05 	call	0xb0a	; 0xb0a <display_wait>
    10fc:	80 e0       	ldi	r24, 0x00	; 0
    10fe:	60 ec       	ldi	r22, 0xC0	; 192
    1100:	0e 94 01 05 	call	0xa02	; 0xa02 <display_write>
    1104:	80 e0       	ldi	r24, 0x00	; 0
    1106:	0e 94 85 05 	call	0xb0a	; 0xb0a <display_wait>
    110a:	80 e0       	ldi	r24, 0x00	; 0
    110c:	60 e4       	ldi	r22, 0x40	; 64
    110e:	0e 94 01 05 	call	0xa02	; 0xa02 <display_write>
    1112:	80 e0       	ldi	r24, 0x00	; 0
    1114:	0e 94 85 05 	call	0xb0a	; 0xb0a <display_wait>
    1118:	80 e0       	ldi	r24, 0x00	; 0
    111a:	68 eb       	ldi	r22, 0xB8	; 184
    111c:	0e 94 01 05 	call	0xa02	; 0xa02 <display_write>
    1120:	81 e0       	ldi	r24, 0x01	; 1
    1122:	0e 94 85 05 	call	0xb0a	; 0xb0a <display_wait>
    1126:	81 e0       	ldi	r24, 0x01	; 1
    1128:	6f e3       	ldi	r22, 0x3F	; 63
    112a:	0e 94 01 05 	call	0xa02	; 0xa02 <display_write>
    112e:	81 e0       	ldi	r24, 0x01	; 1
    1130:	0e 94 85 05 	call	0xb0a	; 0xb0a <display_wait>
    1134:	81 e0       	ldi	r24, 0x01	; 1
    1136:	60 ec       	ldi	r22, 0xC0	; 192
    1138:	0e 94 01 05 	call	0xa02	; 0xa02 <display_write>
    113c:	81 e0       	ldi	r24, 0x01	; 1
    113e:	0e 94 85 05 	call	0xb0a	; 0xb0a <display_wait>
    1142:	81 e0       	ldi	r24, 0x01	; 1
    1144:	60 e4       	ldi	r22, 0x40	; 64
    1146:	0e 94 01 05 	call	0xa02	; 0xa02 <display_write>
    114a:	81 e0       	ldi	r24, 0x01	; 1
    114c:	0e 94 85 05 	call	0xb0a	; 0xb0a <display_wait>
    1150:	81 e0       	ldi	r24, 0x01	; 1
    1152:	68 eb       	ldi	r22, 0xB8	; 184
    1154:	0e 94 01 05 	call	0xa02	; 0xa02 <display_write>
    1158:	80 e0       	ldi	r24, 0x00	; 0
    115a:	0e 94 32 08 	call	0x1064	; 0x1064 <gfx_fill>
    115e:	81 e0       	ldi	r24, 0x01	; 1
    1160:	80 93 43 04 	sts	0x0443, r24
    1164:	08 95       	ret

00001166 <gfx_move>:
    1166:	0f 93       	push	r16
    1168:	1f 93       	push	r17
    116a:	18 2f       	mov	r17, r24
    116c:	06 2f       	mov	r16, r22
    116e:	80 93 46 04 	sts	0x0446, r24
    1172:	60 93 4f 04 	sts	0x044F, r22
    1176:	80 e0       	ldi	r24, 0x00	; 0
    1178:	0e 94 85 05 	call	0xb0a	; 0xb0a <display_wait>
    117c:	81 e0       	ldi	r24, 0x01	; 1
    117e:	0e 94 85 05 	call	0xb0a	; 0xb0a <display_wait>
    1182:	06 95       	lsr	r16
    1184:	06 95       	lsr	r16
    1186:	06 95       	lsr	r16
    1188:	08 54       	subi	r16, 0x48	; 72
    118a:	80 e0       	ldi	r24, 0x00	; 0
    118c:	60 2f       	mov	r22, r16
    118e:	0e 94 01 05 	call	0xa02	; 0xa02 <display_write>
    1192:	81 e0       	ldi	r24, 0x01	; 1
    1194:	60 2f       	mov	r22, r16
    1196:	0e 94 01 05 	call	0xa02	; 0xa02 <display_write>
    119a:	80 e0       	ldi	r24, 0x00	; 0
    119c:	0e 94 85 05 	call	0xb0a	; 0xb0a <display_wait>
    11a0:	81 e0       	ldi	r24, 0x01	; 1
    11a2:	0e 94 85 05 	call	0xb0a	; 0xb0a <display_wait>
    11a6:	11 34       	cpi	r17, 0x41	; 65
    11a8:	38 f0       	brcs	.+14     	; 0x11b8 <gfx_move+0x52>
    11aa:	80 e0       	ldi	r24, 0x00	; 0
    11ac:	60 e4       	ldi	r22, 0x40	; 64
    11ae:	0e 94 01 05 	call	0xa02	; 0xa02 <display_write>
    11b2:	81 e0       	ldi	r24, 0x01	; 1
    11b4:	61 2f       	mov	r22, r17
    11b6:	07 c0       	rjmp	.+14     	; 0x11c6 <gfx_move+0x60>
    11b8:	61 2f       	mov	r22, r17
    11ba:	60 5c       	subi	r22, 0xC0	; 192
    11bc:	80 e0       	ldi	r24, 0x00	; 0
    11be:	0e 94 01 05 	call	0xa02	; 0xa02 <display_write>
    11c2:	81 e0       	ldi	r24, 0x01	; 1
    11c4:	60 e4       	ldi	r22, 0x40	; 64
    11c6:	0e 94 01 05 	call	0xa02	; 0xa02 <display_write>
    11ca:	1f 91       	pop	r17
    11cc:	0f 91       	pop	r16
    11ce:	08 95       	ret

000011d0 <gfx_term_scroll>:
    11d0:	ef 92       	push	r14
    11d2:	ff 92       	push	r15
    11d4:	0f 93       	push	r16
    11d6:	1f 93       	push	r17
    11d8:	cf 93       	push	r28
    11da:	df 93       	push	r29
    11dc:	19 eb       	ldi	r17, 0xB9	; 185
    11de:	47 c0       	rjmp	.+142    	; 0x126e <gfx_term_scroll+0x9e>
    11e0:	08 30       	cpi	r16, 0x08	; 8
    11e2:	e8 f4       	brcc	.+58     	; 0x121e <gfx_term_scroll+0x4e>
    11e4:	80 e0       	ldi	r24, 0x00	; 0
    11e6:	0e 94 85 05 	call	0xb0a	; 0xb0a <display_wait>
    11ea:	80 e0       	ldi	r24, 0x00	; 0
    11ec:	61 2f       	mov	r22, r17
    11ee:	0e 94 01 05 	call	0xa02	; 0xa02 <display_write>
    11f2:	80 e0       	ldi	r24, 0x00	; 0
    11f4:	0e 94 85 05 	call	0xb0a	; 0xb0a <display_wait>
    11f8:	6f 2d       	mov	r22, r15
    11fa:	60 5c       	subi	r22, 0xC0	; 192
    11fc:	80 e0       	ldi	r24, 0x00	; 0
    11fe:	0e 94 01 05 	call	0xa02	; 0xa02 <display_write>
    1202:	82 e0       	ldi	r24, 0x02	; 2
    1204:	0e 94 44 05 	call	0xa88	; 0xa88 <display_read>
    1208:	c7 e4       	ldi	r28, 0x47	; 71
    120a:	d4 e0       	ldi	r29, 0x04	; 4
    120c:	82 e0       	ldi	r24, 0x02	; 2
    120e:	0e 94 44 05 	call	0xa88	; 0xa88 <display_read>
    1212:	89 93       	st	Y+, r24
    1214:	84 e0       	ldi	r24, 0x04	; 4
    1216:	cf 34       	cpi	r28, 0x4F	; 79
    1218:	d8 07       	cpc	r29, r24
    121a:	c1 f7       	brne	.-16     	; 0x120c <gfx_term_scroll+0x3c>
    121c:	1b c0       	rjmp	.+54     	; 0x1254 <gfx_term_scroll+0x84>
    121e:	81 e0       	ldi	r24, 0x01	; 1
    1220:	0e 94 85 05 	call	0xb0a	; 0xb0a <display_wait>
    1224:	81 e0       	ldi	r24, 0x01	; 1
    1226:	61 2f       	mov	r22, r17
    1228:	0e 94 01 05 	call	0xa02	; 0xa02 <display_write>
    122c:	81 e0       	ldi	r24, 0x01	; 1
    122e:	0e 94 85 05 	call	0xb0a	; 0xb0a <display_wait>
    1232:	81 e0       	ldi	r24, 0x01	; 1
    1234:	6f 2d       	mov	r22, r15
    1236:	0e 94 01 05 	call	0xa02	; 0xa02 <display_write>
    123a:	83 e0       	ldi	r24, 0x03	; 3
    123c:	0e 94 44 05 	call	0xa88	; 0xa88 <display_read>
    1240:	c7 e4       	ldi	r28, 0x47	; 71
    1242:	d4 e0       	ldi	r29, 0x04	; 4
    1244:	83 e0       	ldi	r24, 0x03	; 3
    1246:	0e 94 44 05 	call	0xa88	; 0xa88 <display_read>
    124a:	89 93       	st	Y+, r24
    124c:	84 e0       	ldi	r24, 0x04	; 4
    124e:	cf 34       	cpi	r28, 0x4F	; 79
    1250:	d8 07       	cpc	r29, r24
    1252:	c1 f7       	brne	.-16     	; 0x1244 <gfx_term_scroll+0x74>
    1254:	80 2f       	mov	r24, r16
    1256:	6e 2d       	mov	r22, r14
    1258:	0e 94 db 07 	call	0xfb6	; 0xfb6 <gfx_store_disp_tile>
    125c:	0f 5f       	subi	r16, 0xFF	; 255
    125e:	88 e0       	ldi	r24, 0x08	; 8
    1260:	f8 0e       	add	r15, r24
    1262:	00 31       	cpi	r16, 0x10	; 16
    1264:	09 f0       	breq	.+2      	; 0x1268 <gfx_term_scroll+0x98>
    1266:	bc cf       	rjmp	.-136    	; 0x11e0 <gfx_term_scroll+0x10>
    1268:	1f 5f       	subi	r17, 0xFF	; 255
    126a:	10 3c       	cpi	r17, 0xC0	; 192
    126c:	31 f0       	breq	.+12     	; 0x127a <gfx_term_scroll+0xaa>
    126e:	ff 24       	eor	r15, r15
    1270:	00 e0       	ldi	r16, 0x00	; 0
    1272:	37 e4       	ldi	r19, 0x47	; 71
    1274:	e3 2e       	mov	r14, r19
    1276:	e1 0e       	add	r14, r17
    1278:	b3 cf       	rjmp	.-154    	; 0x11e0 <gfx_term_scroll+0x10>
    127a:	e7 e4       	ldi	r30, 0x47	; 71
    127c:	f4 e0       	ldi	r31, 0x04	; 4
    127e:	11 92       	st	Z+, r1
    1280:	84 e0       	ldi	r24, 0x04	; 4
    1282:	ef 34       	cpi	r30, 0x4F	; 79
    1284:	f8 07       	cpc	r31, r24
    1286:	d9 f7       	brne	.-10     	; 0x127e <gfx_term_scroll+0xae>
    1288:	10 e0       	ldi	r17, 0x00	; 0
    128a:	81 2f       	mov	r24, r17
    128c:	67 e0       	ldi	r22, 0x07	; 7
    128e:	0e 94 db 07 	call	0xfb6	; 0xfb6 <gfx_store_disp_tile>
    1292:	1f 5f       	subi	r17, 0xFF	; 255
    1294:	10 31       	cpi	r17, 0x10	; 16
    1296:	c9 f7       	brne	.-14     	; 0x128a <gfx_term_scroll+0xba>
    1298:	80 91 44 04 	lds	r24, 0x0444
    129c:	88 23       	and	r24, r24
    129e:	19 f0       	breq	.+6      	; 0x12a6 <gfx_term_scroll+0xd6>
    12a0:	81 50       	subi	r24, 0x01	; 1
    12a2:	80 93 44 04 	sts	0x0444, r24
    12a6:	df 91       	pop	r29
    12a8:	cf 91       	pop	r28
    12aa:	1f 91       	pop	r17
    12ac:	0f 91       	pop	r16
    12ae:	ff 90       	pop	r15
    12b0:	ef 90       	pop	r14
    12b2:	08 95       	ret

000012b4 <gfx_display_write2>:
    12b4:	ef 92       	push	r14
    12b6:	ff 92       	push	r15
    12b8:	0f 93       	push	r16
    12ba:	1f 93       	push	r17
    12bc:	e8 2e       	mov	r14, r24
    12be:	16 2f       	mov	r17, r22
    12c0:	80 91 46 04 	lds	r24, 0x0446
    12c4:	87 fd       	sbrc	r24, 7
    12c6:	39 c0       	rjmp	.+114    	; 0x133a <gfx_display_write2+0x86>
    12c8:	00 e0       	ldi	r16, 0x00	; 0
    12ca:	80 34       	cpi	r24, 0x40	; 64
    12cc:	08 f0       	brcs	.+2      	; 0x12d0 <gfx_display_write2+0x1c>
    12ce:	01 e0       	ldi	r16, 0x01	; 1
    12d0:	80 2f       	mov	r24, r16
    12d2:	0e 94 85 05 	call	0xb0a	; 0xb0a <display_wait>
    12d6:	42 e0       	ldi	r20, 0x02	; 2
    12d8:	f4 2e       	mov	r15, r20
    12da:	f0 0e       	add	r15, r16
    12dc:	8f 2d       	mov	r24, r15
    12de:	0e 94 44 05 	call	0xa88	; 0xa88 <display_read>
    12e2:	8f 2d       	mov	r24, r15
    12e4:	0e 94 44 05 	call	0xa88	; 0xa88 <display_read>
    12e8:	90 91 43 04 	lds	r25, 0x0443
    12ec:	92 ff       	sbrs	r25, 2
    12ee:	02 c0       	rjmp	.+4      	; 0x12f4 <gfx_display_write2+0x40>
    12f0:	e0 94       	com	r14
    12f2:	9b 7f       	andi	r25, 0xFB	; 251
    12f4:	e1 22       	and	r14, r17
    12f6:	99 23       	and	r25, r25
    12f8:	19 f4       	brne	.+6      	; 0x1300 <gfx_display_write2+0x4c>
    12fa:	1e 2d       	mov	r17, r14
    12fc:	18 2b       	or	r17, r24
    12fe:	08 c0       	rjmp	.+16     	; 0x1310 <gfx_display_write2+0x5c>
    1300:	91 30       	cpi	r25, 0x01	; 1
    1302:	21 f4       	brne	.+8      	; 0x130c <gfx_display_write2+0x58>
    1304:	10 95       	com	r17
    1306:	18 23       	and	r17, r24
    1308:	1e 29       	or	r17, r14
    130a:	02 c0       	rjmp	.+4      	; 0x1310 <gfx_display_write2+0x5c>
    130c:	1e 2d       	mov	r17, r14
    130e:	18 27       	eor	r17, r24
    1310:	80 2f       	mov	r24, r16
    1312:	0e 94 85 05 	call	0xb0a	; 0xb0a <display_wait>
    1316:	60 91 46 04 	lds	r22, 0x0446
    131a:	60 64       	ori	r22, 0x40	; 64
    131c:	80 2f       	mov	r24, r16
    131e:	0e 94 01 05 	call	0xa02	; 0xa02 <display_write>
    1322:	80 2f       	mov	r24, r16
    1324:	0e 94 85 05 	call	0xb0a	; 0xb0a <display_wait>
    1328:	8f 2d       	mov	r24, r15
    132a:	61 2f       	mov	r22, r17
    132c:	0e 94 01 05 	call	0xa02	; 0xa02 <display_write>
    1330:	80 91 46 04 	lds	r24, 0x0446
    1334:	8f 5f       	subi	r24, 0xFF	; 255
    1336:	80 93 46 04 	sts	0x0446, r24
    133a:	1f 91       	pop	r17
    133c:	0f 91       	pop	r16
    133e:	ff 90       	pop	r15
    1340:	ef 90       	pop	r14
    1342:	08 95       	ret

00001344 <gfx_pixel>:
    1344:	90 91 4f 04 	lds	r25, 0x044F
    1348:	97 70       	andi	r25, 0x07	; 7
    134a:	61 e0       	ldi	r22, 0x01	; 1
    134c:	70 e0       	ldi	r23, 0x00	; 0
    134e:	02 c0       	rjmp	.+4      	; 0x1354 <gfx_pixel+0x10>
    1350:	66 0f       	add	r22, r22
    1352:	77 1f       	adc	r23, r23
    1354:	9a 95       	dec	r25
    1356:	e2 f7       	brpl	.-8      	; 0x1350 <gfx_pixel+0xc>
    1358:	88 23       	and	r24, r24
    135a:	11 f0       	breq	.+4      	; 0x1360 <gfx_pixel+0x1c>
    135c:	86 2f       	mov	r24, r22
    135e:	02 c0       	rjmp	.+4      	; 0x1364 <gfx_pixel+0x20>
    1360:	86 2f       	mov	r24, r22
    1362:	60 e0       	ldi	r22, 0x00	; 0
    1364:	0e 94 5a 09 	call	0x12b4	; 0x12b4 <gfx_display_write2>
    1368:	08 95       	ret

0000136a <gfx_draw_xbm_P>:
    136a:	2f 92       	push	r2
    136c:	3f 92       	push	r3
    136e:	4f 92       	push	r4
    1370:	5f 92       	push	r5
    1372:	6f 92       	push	r6
    1374:	7f 92       	push	r7
    1376:	8f 92       	push	r8
    1378:	9f 92       	push	r9
    137a:	af 92       	push	r10
    137c:	bf 92       	push	r11
    137e:	cf 92       	push	r12
    1380:	df 92       	push	r13
    1382:	ef 92       	push	r14
    1384:	ff 92       	push	r15
    1386:	0f 93       	push	r16
    1388:	1f 93       	push	r17
    138a:	df 93       	push	r29
    138c:	cf 93       	push	r28
    138e:	00 d0       	rcall	.+0      	; 0x1390 <gfx_draw_xbm_P+0x26>
    1390:	00 d0       	rcall	.+0      	; 0x1392 <gfx_draw_xbm_P+0x28>
    1392:	00 d0       	rcall	.+0      	; 0x1394 <gfx_draw_xbm_P+0x2a>
    1394:	cd b7       	in	r28, 0x3d	; 61
    1396:	de b7       	in	r29, 0x3e	; 62
    1398:	08 2f       	mov	r16, r24
    139a:	16 2f       	mov	r17, r22
    139c:	5a 83       	std	Y+2, r21	; 0x02
    139e:	49 83       	std	Y+1, r20	; 0x01
    13a0:	60 90 46 04 	lds	r6, 0x0446
    13a4:	e0 90 4f 04 	lds	r14, 0x044F
    13a8:	8e 2d       	mov	r24, r14
    13aa:	87 70       	andi	r24, 0x07	; 7
    13ac:	2f ef       	ldi	r18, 0xFF	; 255
    13ae:	30 e0       	ldi	r19, 0x00	; 0
    13b0:	f2 2e       	mov	r15, r18
    13b2:	01 c0       	rjmp	.+2      	; 0x13b6 <gfx_draw_xbm_P+0x4c>
    13b4:	ff 0c       	add	r15, r15
    13b6:	8a 95       	dec	r24
    13b8:	ea f7       	brpl	.-6      	; 0x13b4 <gfx_draw_xbm_P+0x4a>
    13ba:	80 2f       	mov	r24, r16
    13bc:	90 e0       	ldi	r25, 0x00	; 0
    13be:	01 97       	sbiw	r24, 0x01	; 1
    13c0:	68 e0       	ldi	r22, 0x08	; 8
    13c2:	70 e0       	ldi	r23, 0x00	; 0
    13c4:	0e 94 f8 15 	call	0x2bf0	; 0x2bf0 <__divmodhi4>
    13c8:	6f 5f       	subi	r22, 0xFF	; 255
    13ca:	a6 2e       	mov	r10, r22
    13cc:	bb 24       	eor	r11, r11
    13ce:	c5 01       	movw	r24, r10
    13d0:	73 e0       	ldi	r23, 0x03	; 3
    13d2:	88 0f       	add	r24, r24
    13d4:	99 1f       	adc	r25, r25
    13d6:	7a 95       	dec	r23
    13d8:	e1 f7       	brne	.-8      	; 0x13d2 <gfx_draw_xbm_P+0x68>
    13da:	44 24       	eor	r4, r4
    13dc:	55 24       	eor	r5, r5
    13de:	48 1a       	sub	r4, r24
    13e0:	59 0a       	sbc	r5, r25
    13e2:	cc 24       	eor	r12, r12
    13e4:	68 e0       	ldi	r22, 0x08	; 8
    13e6:	76 2e       	mov	r7, r22
    13e8:	5f ef       	ldi	r21, 0xFF	; 255
    13ea:	85 2e       	mov	r8, r21
    13ec:	91 2c       	mov	r9, r1
    13ee:	bc 82       	std	Y+4, r11	; 0x04
    13f0:	ab 82       	std	Y+3, r10	; 0x03
    13f2:	71 c0       	rjmp	.+226    	; 0x14d6 <gfx_draw_xbm_P+0x16c>
    13f4:	8e 2d       	mov	r24, r14
    13f6:	87 70       	andi	r24, 0x07	; 7
    13f8:	d7 2c       	mov	r13, r7
    13fa:	d8 1a       	sub	r13, r24
    13fc:	1d 15       	cp	r17, r13
    13fe:	48 f4       	brcc	.+18     	; 0x1412 <gfx_draw_xbm_P+0xa8>
    1400:	8d 2d       	mov	r24, r13
    1402:	81 1b       	sub	r24, r17
    1404:	94 01       	movw	r18, r8
    1406:	02 c0       	rjmp	.+4      	; 0x140c <gfx_draw_xbm_P+0xa2>
    1408:	35 95       	asr	r19
    140a:	27 95       	ror	r18
    140c:	8a 95       	dec	r24
    140e:	e2 f7       	brpl	.-8      	; 0x1408 <gfx_draw_xbm_P+0x9e>
    1410:	f2 22       	and	r15, r18
    1412:	8d 2d       	mov	r24, r13
    1414:	8c 0d       	add	r24, r12
    1416:	90 e0       	ldi	r25, 0x00	; 0
    1418:	8a 9d       	mul	r24, r10
    141a:	10 01       	movw	r2, r0
    141c:	8b 9d       	mul	r24, r11
    141e:	30 0c       	add	r3, r0
    1420:	9a 9d       	mul	r25, r10
    1422:	30 0c       	add	r3, r0
    1424:	11 24       	eor	r1, r1
    1426:	80 e0       	ldi	r24, 0x00	; 0
    1428:	90 e0       	ldi	r25, 0x00	; 0
    142a:	9e 83       	std	Y+6, r25	; 0x06
    142c:	8d 83       	std	Y+5, r24	; 0x05
    142e:	43 c0       	rjmp	.+134    	; 0x14b6 <gfx_draw_xbm_P+0x14c>
    1430:	4d 81       	ldd	r20, Y+5	; 0x05
    1432:	5e 81       	ldd	r21, Y+6	; 0x06
    1434:	47 70       	andi	r20, 0x07	; 7
    1436:	50 70       	andi	r21, 0x00	; 0
    1438:	41 15       	cp	r20, r1
    143a:	51 05       	cpc	r21, r1
    143c:	71 f5       	brne	.+92     	; 0x149a <gfx_draw_xbm_P+0x130>
    143e:	e6 95       	lsr	r30
    1440:	e6 95       	lsr	r30
    1442:	e6 95       	lsr	r30
    1444:	c1 01       	movw	r24, r2
    1446:	8e 0f       	add	r24, r30
    1448:	91 1d       	adc	r25, r1
    144a:	fc 01       	movw	r30, r24
    144c:	a9 81       	ldd	r26, Y+1	; 0x01
    144e:	ba 81       	ldd	r27, Y+2	; 0x02
    1450:	ea 0f       	add	r30, r26
    1452:	fb 1f       	adc	r31, r27
    1454:	e4 0d       	add	r30, r4
    1456:	f5 1d       	adc	r31, r5
    1458:	20 e0       	ldi	r18, 0x00	; 0
    145a:	30 e0       	ldi	r19, 0x00	; 0
    145c:	6d 81       	ldd	r22, Y+5	; 0x05
    145e:	7e 81       	ldd	r23, Y+6	; 0x06
    1460:	94 91       	lpm	r25, Z+
    1462:	a7 e4       	ldi	r26, 0x47	; 71
    1464:	b4 e0       	ldi	r27, 0x04	; 4
    1466:	8c 91       	ld	r24, X
    1468:	86 95       	lsr	r24
    146a:	8c 93       	st	X, r24
    146c:	90 ff       	sbrs	r25, 0
    146e:	02 c0       	rjmp	.+4      	; 0x1474 <gfx_draw_xbm_P+0x10a>
    1470:	80 68       	ori	r24, 0x80	; 128
    1472:	8c 93       	st	X, r24
    1474:	11 96       	adiw	r26, 0x01	; 1
    1476:	84 e0       	ldi	r24, 0x04	; 4
    1478:	af 34       	cpi	r26, 0x4F	; 79
    147a:	b8 07       	cpc	r27, r24
    147c:	11 f0       	breq	.+4      	; 0x1482 <gfx_draw_xbm_P+0x118>
    147e:	96 95       	lsr	r25
    1480:	f2 cf       	rjmp	.-28     	; 0x1466 <gfx_draw_xbm_P+0xfc>
    1482:	2f 5f       	subi	r18, 0xFF	; 255
    1484:	3f 4f       	sbci	r19, 0xFF	; 255
    1486:	28 30       	cpi	r18, 0x08	; 8
    1488:	31 05       	cpc	r19, r1
    148a:	29 f0       	breq	.+10     	; 0x1496 <gfx_draw_xbm_P+0x12c>
    148c:	ab 81       	ldd	r26, Y+3	; 0x03
    148e:	bc 81       	ldd	r27, Y+4	; 0x04
    1490:	ea 0f       	add	r30, r26
    1492:	fb 1f       	adc	r31, r27
    1494:	e5 cf       	rjmp	.-54     	; 0x1460 <gfx_draw_xbm_P+0xf6>
    1496:	7e 83       	std	Y+6, r23	; 0x06
    1498:	6d 83       	std	Y+5, r22	; 0x05
    149a:	49 5b       	subi	r20, 0xB9	; 185
    149c:	5b 4f       	sbci	r21, 0xFB	; 251
    149e:	fa 01       	movw	r30, r20
    14a0:	80 81       	ld	r24, Z
    14a2:	8f 21       	and	r24, r15
    14a4:	6f 2d       	mov	r22, r15
    14a6:	0e 94 5a 09 	call	0x12b4	; 0x12b4 <gfx_display_write2>
    14aa:	2d 81       	ldd	r18, Y+5	; 0x05
    14ac:	3e 81       	ldd	r19, Y+6	; 0x06
    14ae:	2f 5f       	subi	r18, 0xFF	; 255
    14b0:	3f 4f       	sbci	r19, 0xFF	; 255
    14b2:	3e 83       	std	Y+6, r19	; 0x06
    14b4:	2d 83       	std	Y+5, r18	; 0x05
    14b6:	ed 81       	ldd	r30, Y+5	; 0x05
    14b8:	e0 17       	cp	r30, r16
    14ba:	08 f4       	brcc	.+2      	; 0x14be <gfx_draw_xbm_P+0x154>
    14bc:	b9 cf       	rjmp	.-142    	; 0x1430 <gfx_draw_xbm_P+0xc6>
    14be:	1d 15       	cp	r17, r13
    14c0:	08 f4       	brcc	.+2      	; 0x14c4 <gfx_draw_xbm_P+0x15a>
    14c2:	d1 2e       	mov	r13, r17
    14c4:	1d 19       	sub	r17, r13
    14c6:	ed 0c       	add	r14, r13
    14c8:	cd 0c       	add	r12, r13
    14ca:	86 2d       	mov	r24, r6
    14cc:	6e 2d       	mov	r22, r14
    14ce:	0e 94 b3 08 	call	0x1166	; 0x1166 <gfx_move>
    14d2:	ff 24       	eor	r15, r15
    14d4:	fa 94       	dec	r15
    14d6:	11 23       	and	r17, r17
    14d8:	09 f0       	breq	.+2      	; 0x14dc <gfx_draw_xbm_P+0x172>
    14da:	8c cf       	rjmp	.-232    	; 0x13f4 <gfx_draw_xbm_P+0x8a>
    14dc:	26 96       	adiw	r28, 0x06	; 6
    14de:	0f b6       	in	r0, 0x3f	; 63
    14e0:	f8 94       	cli
    14e2:	de bf       	out	0x3e, r29	; 62
    14e4:	0f be       	out	0x3f, r0	; 63
    14e6:	cd bf       	out	0x3d, r28	; 61
    14e8:	cf 91       	pop	r28
    14ea:	df 91       	pop	r29
    14ec:	1f 91       	pop	r17
    14ee:	0f 91       	pop	r16
    14f0:	ff 90       	pop	r15
    14f2:	ef 90       	pop	r14
    14f4:	df 90       	pop	r13
    14f6:	cf 90       	pop	r12
    14f8:	bf 90       	pop	r11
    14fa:	af 90       	pop	r10
    14fc:	9f 90       	pop	r9
    14fe:	8f 90       	pop	r8
    1500:	7f 90       	pop	r7
    1502:	6f 90       	pop	r6
    1504:	5f 90       	pop	r5
    1506:	4f 90       	pop	r4
    1508:	3f 90       	pop	r3
    150a:	2f 90       	pop	r2
    150c:	08 95       	ret

0000150e <gfx_draw_xbm>:
    150e:	2f 92       	push	r2
    1510:	3f 92       	push	r3
    1512:	4f 92       	push	r4
    1514:	5f 92       	push	r5
    1516:	6f 92       	push	r6
    1518:	7f 92       	push	r7
    151a:	8f 92       	push	r8
    151c:	9f 92       	push	r9
    151e:	af 92       	push	r10
    1520:	bf 92       	push	r11
    1522:	cf 92       	push	r12
    1524:	df 92       	push	r13
    1526:	ef 92       	push	r14
    1528:	ff 92       	push	r15
    152a:	0f 93       	push	r16
    152c:	1f 93       	push	r17
    152e:	df 93       	push	r29
    1530:	cf 93       	push	r28
    1532:	00 d0       	rcall	.+0      	; 0x1534 <gfx_draw_xbm+0x26>
    1534:	00 d0       	rcall	.+0      	; 0x1536 <gfx_draw_xbm+0x28>
    1536:	00 d0       	rcall	.+0      	; 0x1538 <gfx_draw_xbm+0x2a>
    1538:	cd b7       	in	r28, 0x3d	; 61
    153a:	de b7       	in	r29, 0x3e	; 62
    153c:	08 2f       	mov	r16, r24
    153e:	16 2f       	mov	r17, r22
    1540:	5a 83       	std	Y+2, r21	; 0x02
    1542:	49 83       	std	Y+1, r20	; 0x01
    1544:	60 90 46 04 	lds	r6, 0x0446
    1548:	e0 90 4f 04 	lds	r14, 0x044F
    154c:	8e 2d       	mov	r24, r14
    154e:	87 70       	andi	r24, 0x07	; 7
    1550:	2f ef       	ldi	r18, 0xFF	; 255
    1552:	30 e0       	ldi	r19, 0x00	; 0
    1554:	f2 2e       	mov	r15, r18
    1556:	01 c0       	rjmp	.+2      	; 0x155a <gfx_draw_xbm+0x4c>
    1558:	ff 0c       	add	r15, r15
    155a:	8a 95       	dec	r24
    155c:	ea f7       	brpl	.-6      	; 0x1558 <gfx_draw_xbm+0x4a>
    155e:	80 2f       	mov	r24, r16
    1560:	90 e0       	ldi	r25, 0x00	; 0
    1562:	01 97       	sbiw	r24, 0x01	; 1
    1564:	68 e0       	ldi	r22, 0x08	; 8
    1566:	70 e0       	ldi	r23, 0x00	; 0
    1568:	0e 94 f8 15 	call	0x2bf0	; 0x2bf0 <__divmodhi4>
    156c:	6f 5f       	subi	r22, 0xFF	; 255
    156e:	a6 2e       	mov	r10, r22
    1570:	bb 24       	eor	r11, r11
    1572:	c5 01       	movw	r24, r10
    1574:	a3 e0       	ldi	r26, 0x03	; 3
    1576:	88 0f       	add	r24, r24
    1578:	99 1f       	adc	r25, r25
    157a:	aa 95       	dec	r26
    157c:	e1 f7       	brne	.-8      	; 0x1576 <gfx_draw_xbm+0x68>
    157e:	44 24       	eor	r4, r4
    1580:	55 24       	eor	r5, r5
    1582:	48 1a       	sub	r4, r24
    1584:	59 0a       	sbc	r5, r25
    1586:	cc 24       	eor	r12, r12
    1588:	f8 e0       	ldi	r31, 0x08	; 8
    158a:	7f 2e       	mov	r7, r31
    158c:	ef ef       	ldi	r30, 0xFF	; 255
    158e:	8e 2e       	mov	r8, r30
    1590:	91 2c       	mov	r9, r1
    1592:	bc 82       	std	Y+4, r11	; 0x04
    1594:	ab 82       	std	Y+3, r10	; 0x03
    1596:	71 c0       	rjmp	.+226    	; 0x167a <gfx_draw_xbm+0x16c>
    1598:	8e 2d       	mov	r24, r14
    159a:	87 70       	andi	r24, 0x07	; 7
    159c:	d7 2c       	mov	r13, r7
    159e:	d8 1a       	sub	r13, r24
    15a0:	1d 15       	cp	r17, r13
    15a2:	48 f4       	brcc	.+18     	; 0x15b6 <gfx_draw_xbm+0xa8>
    15a4:	8d 2d       	mov	r24, r13
    15a6:	81 1b       	sub	r24, r17
    15a8:	94 01       	movw	r18, r8
    15aa:	02 c0       	rjmp	.+4      	; 0x15b0 <gfx_draw_xbm+0xa2>
    15ac:	35 95       	asr	r19
    15ae:	27 95       	ror	r18
    15b0:	8a 95       	dec	r24
    15b2:	e2 f7       	brpl	.-8      	; 0x15ac <gfx_draw_xbm+0x9e>
    15b4:	f2 22       	and	r15, r18
    15b6:	8d 2d       	mov	r24, r13
    15b8:	8c 0d       	add	r24, r12
    15ba:	90 e0       	ldi	r25, 0x00	; 0
    15bc:	8a 9d       	mul	r24, r10
    15be:	10 01       	movw	r2, r0
    15c0:	8b 9d       	mul	r24, r11
    15c2:	30 0c       	add	r3, r0
    15c4:	9a 9d       	mul	r25, r10
    15c6:	30 0c       	add	r3, r0
    15c8:	11 24       	eor	r1, r1
    15ca:	80 e0       	ldi	r24, 0x00	; 0
    15cc:	90 e0       	ldi	r25, 0x00	; 0
    15ce:	9e 83       	std	Y+6, r25	; 0x06
    15d0:	8d 83       	std	Y+5, r24	; 0x05
    15d2:	43 c0       	rjmp	.+134    	; 0x165a <gfx_draw_xbm+0x14c>
    15d4:	4d 81       	ldd	r20, Y+5	; 0x05
    15d6:	5e 81       	ldd	r21, Y+6	; 0x06
    15d8:	47 70       	andi	r20, 0x07	; 7
    15da:	50 70       	andi	r21, 0x00	; 0
    15dc:	41 15       	cp	r20, r1
    15de:	51 05       	cpc	r21, r1
    15e0:	71 f5       	brne	.+92     	; 0x163e <gfx_draw_xbm+0x130>
    15e2:	e6 95       	lsr	r30
    15e4:	e6 95       	lsr	r30
    15e6:	e6 95       	lsr	r30
    15e8:	c1 01       	movw	r24, r2
    15ea:	8e 0f       	add	r24, r30
    15ec:	91 1d       	adc	r25, r1
    15ee:	fc 01       	movw	r30, r24
    15f0:	a9 81       	ldd	r26, Y+1	; 0x01
    15f2:	ba 81       	ldd	r27, Y+2	; 0x02
    15f4:	ea 0f       	add	r30, r26
    15f6:	fb 1f       	adc	r31, r27
    15f8:	e4 0d       	add	r30, r4
    15fa:	f5 1d       	adc	r31, r5
    15fc:	20 e0       	ldi	r18, 0x00	; 0
    15fe:	30 e0       	ldi	r19, 0x00	; 0
    1600:	6d 81       	ldd	r22, Y+5	; 0x05
    1602:	7e 81       	ldd	r23, Y+6	; 0x06
    1604:	90 81       	ld	r25, Z
    1606:	a7 e4       	ldi	r26, 0x47	; 71
    1608:	b4 e0       	ldi	r27, 0x04	; 4
    160a:	8c 91       	ld	r24, X
    160c:	86 95       	lsr	r24
    160e:	8c 93       	st	X, r24
    1610:	90 ff       	sbrs	r25, 0
    1612:	02 c0       	rjmp	.+4      	; 0x1618 <gfx_draw_xbm+0x10a>
    1614:	80 68       	ori	r24, 0x80	; 128
    1616:	8c 93       	st	X, r24
    1618:	11 96       	adiw	r26, 0x01	; 1
    161a:	84 e0       	ldi	r24, 0x04	; 4
    161c:	af 34       	cpi	r26, 0x4F	; 79
    161e:	b8 07       	cpc	r27, r24
    1620:	11 f0       	breq	.+4      	; 0x1626 <gfx_draw_xbm+0x118>
    1622:	96 95       	lsr	r25
    1624:	f2 cf       	rjmp	.-28     	; 0x160a <gfx_draw_xbm+0xfc>
    1626:	2f 5f       	subi	r18, 0xFF	; 255
    1628:	3f 4f       	sbci	r19, 0xFF	; 255
    162a:	28 30       	cpi	r18, 0x08	; 8
    162c:	31 05       	cpc	r19, r1
    162e:	29 f0       	breq	.+10     	; 0x163a <gfx_draw_xbm+0x12c>
    1630:	ab 81       	ldd	r26, Y+3	; 0x03
    1632:	bc 81       	ldd	r27, Y+4	; 0x04
    1634:	ea 0f       	add	r30, r26
    1636:	fb 1f       	adc	r31, r27
    1638:	e5 cf       	rjmp	.-54     	; 0x1604 <gfx_draw_xbm+0xf6>
    163a:	7e 83       	std	Y+6, r23	; 0x06
    163c:	6d 83       	std	Y+5, r22	; 0x05
    163e:	49 5b       	subi	r20, 0xB9	; 185
    1640:	5b 4f       	sbci	r21, 0xFB	; 251
    1642:	fa 01       	movw	r30, r20
    1644:	80 81       	ld	r24, Z
    1646:	8f 21       	and	r24, r15
    1648:	6f 2d       	mov	r22, r15
    164a:	0e 94 5a 09 	call	0x12b4	; 0x12b4 <gfx_display_write2>
    164e:	2d 81       	ldd	r18, Y+5	; 0x05
    1650:	3e 81       	ldd	r19, Y+6	; 0x06
    1652:	2f 5f       	subi	r18, 0xFF	; 255
    1654:	3f 4f       	sbci	r19, 0xFF	; 255
    1656:	3e 83       	std	Y+6, r19	; 0x06
    1658:	2d 83       	std	Y+5, r18	; 0x05
    165a:	ed 81       	ldd	r30, Y+5	; 0x05
    165c:	e0 17       	cp	r30, r16
    165e:	08 f4       	brcc	.+2      	; 0x1662 <gfx_draw_xbm+0x154>
    1660:	b9 cf       	rjmp	.-142    	; 0x15d4 <gfx_draw_xbm+0xc6>
    1662:	1d 15       	cp	r17, r13
    1664:	08 f4       	brcc	.+2      	; 0x1668 <gfx_draw_xbm+0x15a>
    1666:	d1 2e       	mov	r13, r17
    1668:	1d 19       	sub	r17, r13
    166a:	ed 0c       	add	r14, r13
    166c:	cd 0c       	add	r12, r13
    166e:	86 2d       	mov	r24, r6
    1670:	6e 2d       	mov	r22, r14
    1672:	0e 94 b3 08 	call	0x1166	; 0x1166 <gfx_move>
    1676:	ff 24       	eor	r15, r15
    1678:	fa 94       	dec	r15
    167a:	11 23       	and	r17, r17
    167c:	09 f0       	breq	.+2      	; 0x1680 <gfx_draw_xbm+0x172>
    167e:	8c cf       	rjmp	.-232    	; 0x1598 <gfx_draw_xbm+0x8a>
    1680:	26 96       	adiw	r28, 0x06	; 6
    1682:	0f b6       	in	r0, 0x3f	; 63
    1684:	f8 94       	cli
    1686:	de bf       	out	0x3e, r29	; 62
    1688:	0f be       	out	0x3f, r0	; 63
    168a:	cd bf       	out	0x3d, r28	; 61
    168c:	cf 91       	pop	r28
    168e:	df 91       	pop	r29
    1690:	1f 91       	pop	r17
    1692:	0f 91       	pop	r16
    1694:	ff 90       	pop	r15
    1696:	ef 90       	pop	r14
    1698:	df 90       	pop	r13
    169a:	cf 90       	pop	r12
    169c:	bf 90       	pop	r11
    169e:	af 90       	pop	r10
    16a0:	9f 90       	pop	r9
    16a2:	8f 90       	pop	r8
    16a4:	7f 90       	pop	r7
    16a6:	6f 90       	pop	r6
    16a8:	5f 90       	pop	r5
    16aa:	4f 90       	pop	r4
    16ac:	3f 90       	pop	r3
    16ae:	2f 90       	pop	r2
    16b0:	08 95       	ret

000016b2 <gfx_box>:
    16b2:	af 92       	push	r10
    16b4:	bf 92       	push	r11
    16b6:	cf 92       	push	r12
    16b8:	df 92       	push	r13
    16ba:	ef 92       	push	r14
    16bc:	ff 92       	push	r15
    16be:	0f 93       	push	r16
    16c0:	1f 93       	push	r17
    16c2:	cf 93       	push	r28
    16c4:	df 93       	push	r29
    16c6:	a8 2e       	mov	r10, r24
    16c8:	16 2f       	mov	r17, r22
    16ca:	b0 90 46 04 	lds	r11, 0x0446
    16ce:	f0 90 4f 04 	lds	r15, 0x044F
    16d2:	8f 2d       	mov	r24, r15
    16d4:	87 70       	andi	r24, 0x07	; 7
    16d6:	2f ef       	ldi	r18, 0xFF	; 255
    16d8:	30 e0       	ldi	r19, 0x00	; 0
    16da:	02 2f       	mov	r16, r18
    16dc:	01 c0       	rjmp	.+2      	; 0x16e0 <gfx_box+0x2e>
    16de:	00 0f       	add	r16, r16
    16e0:	8a 95       	dec	r24
    16e2:	ea f7       	brpl	.-6      	; 0x16de <gfx_box+0x2c>
    16e4:	b8 e0       	ldi	r27, 0x08	; 8
    16e6:	cb 2e       	mov	r12, r27
    16e8:	cf ef       	ldi	r28, 0xFF	; 255
    16ea:	d0 e0       	ldi	r29, 0x00	; 0
    16ec:	22 c0       	rjmp	.+68     	; 0x1732 <gfx_box+0x80>
    16ee:	8f 2d       	mov	r24, r15
    16f0:	87 70       	andi	r24, 0x07	; 7
    16f2:	ec 2c       	mov	r14, r12
    16f4:	e8 1a       	sub	r14, r24
    16f6:	1e 15       	cp	r17, r14
    16f8:	48 f4       	brcc	.+18     	; 0x170c <gfx_box+0x5a>
    16fa:	8e 2d       	mov	r24, r14
    16fc:	81 1b       	sub	r24, r17
    16fe:	9e 01       	movw	r18, r28
    1700:	02 c0       	rjmp	.+4      	; 0x1706 <gfx_box+0x54>
    1702:	35 95       	asr	r19
    1704:	27 95       	ror	r18
    1706:	8a 95       	dec	r24
    1708:	e2 f7       	brpl	.-8      	; 0x1702 <gfx_box+0x50>
    170a:	02 23       	and	r16, r18
    170c:	da 2c       	mov	r13, r10
    170e:	05 c0       	rjmp	.+10     	; 0x171a <gfx_box+0x68>
    1710:	80 2f       	mov	r24, r16
    1712:	60 2f       	mov	r22, r16
    1714:	0e 94 5a 09 	call	0x12b4	; 0x12b4 <gfx_display_write2>
    1718:	da 94       	dec	r13
    171a:	dd 20       	and	r13, r13
    171c:	c9 f7       	brne	.-14     	; 0x1710 <gfx_box+0x5e>
    171e:	1e 15       	cp	r17, r14
    1720:	08 f4       	brcc	.+2      	; 0x1724 <gfx_box+0x72>
    1722:	e1 2e       	mov	r14, r17
    1724:	1e 19       	sub	r17, r14
    1726:	fe 0c       	add	r15, r14
    1728:	8b 2d       	mov	r24, r11
    172a:	6f 2d       	mov	r22, r15
    172c:	0e 94 b3 08 	call	0x1166	; 0x1166 <gfx_move>
    1730:	0f ef       	ldi	r16, 0xFF	; 255
    1732:	11 23       	and	r17, r17
    1734:	e1 f6       	brne	.-72     	; 0x16ee <gfx_box+0x3c>
    1736:	df 91       	pop	r29
    1738:	cf 91       	pop	r28
    173a:	1f 91       	pop	r17
    173c:	0f 91       	pop	r16
    173e:	ff 90       	pop	r15
    1740:	ef 90       	pop	r14
    1742:	df 90       	pop	r13
    1744:	cf 90       	pop	r12
    1746:	bf 90       	pop	r11
    1748:	af 90       	pop	r10
    174a:	08 95       	ret

0000174c <gfx_vline>:
    174c:	68 2f       	mov	r22, r24
    174e:	81 e0       	ldi	r24, 0x01	; 1
    1750:	0e 94 59 0b 	call	0x16b2	; 0x16b2 <gfx_box>
    1754:	08 95       	ret

00001756 <gfx_hline>:
    1756:	0f 93       	push	r16
    1758:	1f 93       	push	r17
    175a:	18 2f       	mov	r17, r24
    175c:	80 91 4f 04 	lds	r24, 0x044F
    1760:	87 70       	andi	r24, 0x07	; 7
    1762:	21 e0       	ldi	r18, 0x01	; 1
    1764:	30 e0       	ldi	r19, 0x00	; 0
    1766:	02 2f       	mov	r16, r18
    1768:	01 c0       	rjmp	.+2      	; 0x176c <gfx_hline+0x16>
    176a:	00 0f       	add	r16, r16
    176c:	8a 95       	dec	r24
    176e:	ea f7       	brpl	.-6      	; 0x176a <gfx_hline+0x14>
    1770:	05 c0       	rjmp	.+10     	; 0x177c <gfx_hline+0x26>
    1772:	80 2f       	mov	r24, r16
    1774:	60 2f       	mov	r22, r16
    1776:	0e 94 5a 09 	call	0x12b4	; 0x12b4 <gfx_display_write2>
    177a:	11 50       	subi	r17, 0x01	; 1
    177c:	11 23       	and	r17, r17
    177e:	c9 f7       	brne	.-14     	; 0x1772 <gfx_hline+0x1c>
    1780:	1f 91       	pop	r17
    1782:	0f 91       	pop	r16
    1784:	08 95       	ret

00001786 <gfx_lineTo>:
    1786:	9f 92       	push	r9
    1788:	af 92       	push	r10
    178a:	bf 92       	push	r11
    178c:	cf 92       	push	r12
    178e:	df 92       	push	r13
    1790:	ef 92       	push	r14
    1792:	ff 92       	push	r15
    1794:	0f 93       	push	r16
    1796:	1f 93       	push	r17
    1798:	08 2f       	mov	r16, r24
    179a:	16 2f       	mov	r17, r22
    179c:	f0 90 46 04 	lds	r15, 0x0446
    17a0:	e0 90 4f 04 	lds	r14, 0x044F
    17a4:	8f 15       	cp	r24, r15
    17a6:	61 f4       	brne	.+24     	; 0x17c0 <gfx_lineTo+0x3a>
    17a8:	e6 16       	cp	r14, r22
    17aa:	18 f4       	brcc	.+6      	; 0x17b2 <gfx_lineTo+0x2c>
    17ac:	86 2f       	mov	r24, r22
    17ae:	8e 19       	sub	r24, r14
    17b0:	04 c0       	rjmp	.+8      	; 0x17ba <gfx_lineTo+0x34>
    17b2:	0e 94 b3 08 	call	0x1166	; 0x1166 <gfx_move>
    17b6:	8e 2d       	mov	r24, r14
    17b8:	81 1b       	sub	r24, r17
    17ba:	0e 94 a6 0b 	call	0x174c	; 0x174c <gfx_vline>
    17be:	5e c0       	rjmp	.+188    	; 0x187c <gfx_lineTo+0xf6>
    17c0:	de 2c       	mov	r13, r14
    17c2:	6e 15       	cp	r22, r14
    17c4:	59 f4       	brne	.+22     	; 0x17dc <gfx_lineTo+0x56>
    17c6:	f8 16       	cp	r15, r24
    17c8:	10 f4       	brcc	.+4      	; 0x17ce <gfx_lineTo+0x48>
    17ca:	8f 19       	sub	r24, r15
    17cc:	04 c0       	rjmp	.+8      	; 0x17d6 <gfx_lineTo+0x50>
    17ce:	0e 94 b3 08 	call	0x1166	; 0x1166 <gfx_move>
    17d2:	8f 2d       	mov	r24, r15
    17d4:	80 1b       	sub	r24, r16
    17d6:	0e 94 ab 0b 	call	0x1756	; 0x1756 <gfx_hline>
    17da:	50 c0       	rjmp	.+160    	; 0x187c <gfx_lineTo+0xf6>
    17dc:	8f 15       	cp	r24, r15
    17de:	28 f4       	brcc	.+10     	; 0x17ea <gfx_lineTo+0x64>
    17e0:	af 2c       	mov	r10, r15
    17e2:	a8 1a       	sub	r10, r24
    17e4:	99 24       	eor	r9, r9
    17e6:	9a 94       	dec	r9
    17e8:	09 c0       	rjmp	.+18     	; 0x17fc <gfx_lineTo+0x76>
    17ea:	f8 16       	cp	r15, r24
    17ec:	18 f0       	brcs	.+6      	; 0x17f4 <gfx_lineTo+0x6e>
    17ee:	99 24       	eor	r9, r9
    17f0:	aa 24       	eor	r10, r10
    17f2:	04 c0       	rjmp	.+8      	; 0x17fc <gfx_lineTo+0x76>
    17f4:	a8 2e       	mov	r10, r24
    17f6:	af 18       	sub	r10, r15
    17f8:	99 24       	eor	r9, r9
    17fa:	93 94       	inc	r9
    17fc:	1e 15       	cp	r17, r14
    17fe:	28 f4       	brcc	.+10     	; 0x180a <gfx_lineTo+0x84>
    1800:	be 2c       	mov	r11, r14
    1802:	b1 1a       	sub	r11, r17
    1804:	cc 24       	eor	r12, r12
    1806:	ca 94       	dec	r12
    1808:	09 c0       	rjmp	.+18     	; 0x181c <gfx_lineTo+0x96>
    180a:	e1 16       	cp	r14, r17
    180c:	18 f0       	brcs	.+6      	; 0x1814 <gfx_lineTo+0x8e>
    180e:	cc 24       	eor	r12, r12
    1810:	bb 24       	eor	r11, r11
    1812:	04 c0       	rjmp	.+8      	; 0x181c <gfx_lineTo+0x96>
    1814:	b1 2e       	mov	r11, r17
    1816:	be 18       	sub	r11, r14
    1818:	cc 24       	eor	r12, r12
    181a:	c3 94       	inc	r12
    181c:	81 e0       	ldi	r24, 0x01	; 1
    181e:	0e 94 a2 09 	call	0x1344	; 0x1344 <gfx_pixel>
    1822:	ba 14       	cp	r11, r10
    1824:	b0 f4       	brcc	.+44     	; 0x1852 <gfx_lineTo+0xcc>
    1826:	ea 2c       	mov	r14, r10
    1828:	e6 94       	lsr	r14
    182a:	e1 94       	neg	r14
    182c:	f9 0c       	add	r15, r9
    182e:	eb 0c       	add	r14, r11
    1830:	1e 14       	cp	r1, r14
    1832:	14 f4       	brge	.+4      	; 0x1838 <gfx_lineTo+0xb2>
    1834:	ea 18       	sub	r14, r10
    1836:	dc 0c       	add	r13, r12
    1838:	8f 2d       	mov	r24, r15
    183a:	6d 2d       	mov	r22, r13
    183c:	0e 94 b3 08 	call	0x1166	; 0x1166 <gfx_move>
    1840:	81 e0       	ldi	r24, 0x01	; 1
    1842:	0e 94 a2 09 	call	0x1344	; 0x1344 <gfx_pixel>
    1846:	f9 0c       	add	r15, r9
    1848:	8f 2d       	mov	r24, r15
    184a:	89 19       	sub	r24, r9
    184c:	80 17       	cp	r24, r16
    184e:	79 f7       	brne	.-34     	; 0x182e <gfx_lineTo+0xa8>
    1850:	15 c0       	rjmp	.+42     	; 0x187c <gfx_lineTo+0xf6>
    1852:	db 2c       	mov	r13, r11
    1854:	d6 94       	lsr	r13
    1856:	d1 94       	neg	r13
    1858:	ec 0c       	add	r14, r12
    185a:	da 0c       	add	r13, r10
    185c:	1d 14       	cp	r1, r13
    185e:	14 f4       	brge	.+4      	; 0x1864 <gfx_lineTo+0xde>
    1860:	db 18       	sub	r13, r11
    1862:	f9 0c       	add	r15, r9
    1864:	8f 2d       	mov	r24, r15
    1866:	6e 2d       	mov	r22, r14
    1868:	0e 94 b3 08 	call	0x1166	; 0x1166 <gfx_move>
    186c:	81 e0       	ldi	r24, 0x01	; 1
    186e:	0e 94 a2 09 	call	0x1344	; 0x1344 <gfx_pixel>
    1872:	ec 0c       	add	r14, r12
    1874:	8e 2d       	mov	r24, r14
    1876:	8c 19       	sub	r24, r12
    1878:	81 17       	cp	r24, r17
    187a:	79 f7       	brne	.-34     	; 0x185a <gfx_lineTo+0xd4>
    187c:	80 2f       	mov	r24, r16
    187e:	61 2f       	mov	r22, r17
    1880:	0e 94 b3 08 	call	0x1166	; 0x1166 <gfx_move>
    1884:	1f 91       	pop	r17
    1886:	0f 91       	pop	r16
    1888:	ff 90       	pop	r15
    188a:	ef 90       	pop	r14
    188c:	df 90       	pop	r13
    188e:	cf 90       	pop	r12
    1890:	bf 90       	pop	r11
    1892:	af 90       	pop	r10
    1894:	9f 90       	pop	r9
    1896:	08 95       	ret

00001898 <gfx_print_char_base>:
    1898:	8f 92       	push	r8
    189a:	9f 92       	push	r9
    189c:	af 92       	push	r10
    189e:	bf 92       	push	r11
    18a0:	cf 92       	push	r12
    18a2:	df 92       	push	r13
    18a4:	ef 92       	push	r14
    18a6:	ff 92       	push	r15
    18a8:	0f 93       	push	r16
    18aa:	1f 93       	push	r17
    18ac:	cf 93       	push	r28
    18ae:	df 93       	push	r29
    18b0:	06 2f       	mov	r16, r22
    18b2:	98 2f       	mov	r25, r24
    18b4:	90 52       	subi	r25, 0x20	; 32
    18b6:	90 36       	cpi	r25, 0x60	; 96
    18b8:	08 f0       	brcs	.+2      	; 0x18bc <gfx_print_char_base+0x24>
    18ba:	80 e8       	ldi	r24, 0x80	; 128
    18bc:	80 52       	subi	r24, 0x20	; 32
    18be:	96 e0       	ldi	r25, 0x06	; 6
    18c0:	89 9f       	mul	r24, r25
    18c2:	e0 01       	movw	r28, r0
    18c4:	11 24       	eor	r1, r1
    18c6:	c1 57       	subi	r28, 0x71	; 113
    18c8:	de 4f       	sbci	r29, 0xFE	; 254
    18ca:	18 81       	ld	r17, Y
    18cc:	80 91 45 04 	lds	r24, 0x0445
    18d0:	88 23       	and	r24, r24
    18d2:	09 f4       	brne	.+2      	; 0x18d6 <gfx_print_char_base+0x3e>
    18d4:	1f e1       	ldi	r17, 0x1F	; 31
    18d6:	e0 2e       	mov	r14, r16
    18d8:	ff 24       	eor	r15, r15
    18da:	e7 fc       	sbrc	r14, 7
    18dc:	f0 94       	com	r15
    18de:	8f ef       	ldi	r24, 0xFF	; 255
    18e0:	90 e0       	ldi	r25, 0x00	; 0
    18e2:	6c 01       	movw	r12, r24
    18e4:	0e 2c       	mov	r0, r14
    18e6:	02 c0       	rjmp	.+4      	; 0x18ec <gfx_print_char_base+0x54>
    18e8:	cc 0c       	add	r12, r12
    18ea:	dd 1c       	adc	r13, r13
    18ec:	0a 94       	dec	r0
    18ee:	e2 f7       	brpl	.-8      	; 0x18e8 <gfx_print_char_base+0x50>
    18f0:	aa 24       	eor	r10, r10
    18f2:	bb 24       	eor	r11, r11
    18f4:	ae 18       	sub	r10, r14
    18f6:	bf 08       	sbc	r11, r15
    18f8:	0a 2c       	mov	r0, r10
    18fa:	02 c0       	rjmp	.+4      	; 0x1900 <gfx_print_char_base+0x68>
    18fc:	95 95       	asr	r25
    18fe:	87 95       	ror	r24
    1900:	0a 94       	dec	r0
    1902:	e2 f7       	brpl	.-8      	; 0x18fc <gfx_print_char_base+0x64>
    1904:	d8 2e       	mov	r13, r24
    1906:	85 e0       	ldi	r24, 0x05	; 5
    1908:	88 2e       	mov	r8, r24
    190a:	91 2c       	mov	r9, r1
    190c:	8c 0e       	add	r8, r28
    190e:	9d 1e       	adc	r9, r29
    1910:	10 ff       	sbrs	r17, 0
    1912:	16 c0       	rjmp	.+44     	; 0x1940 <gfx_print_char_base+0xa8>
    1914:	89 81       	ldd	r24, Y+1	; 0x01
    1916:	07 fd       	sbrc	r16, 7
    1918:	09 c0       	rjmp	.+18     	; 0x192c <gfx_print_char_base+0x94>
    191a:	90 e0       	ldi	r25, 0x00	; 0
    191c:	0e 2c       	mov	r0, r14
    191e:	02 c0       	rjmp	.+4      	; 0x1924 <gfx_print_char_base+0x8c>
    1920:	88 0f       	add	r24, r24
    1922:	99 1f       	adc	r25, r25
    1924:	0a 94       	dec	r0
    1926:	e2 f7       	brpl	.-8      	; 0x1920 <gfx_print_char_base+0x88>
    1928:	6c 2d       	mov	r22, r12
    192a:	08 c0       	rjmp	.+16     	; 0x193c <gfx_print_char_base+0xa4>
    192c:	90 e0       	ldi	r25, 0x00	; 0
    192e:	0a 2c       	mov	r0, r10
    1930:	02 c0       	rjmp	.+4      	; 0x1936 <gfx_print_char_base+0x9e>
    1932:	95 95       	asr	r25
    1934:	87 95       	ror	r24
    1936:	0a 94       	dec	r0
    1938:	e2 f7       	brpl	.-8      	; 0x1932 <gfx_print_char_base+0x9a>
    193a:	6d 2d       	mov	r22, r13
    193c:	0e 94 5a 09 	call	0x12b4	; 0x12b4 <gfx_display_write2>
    1940:	21 96       	adiw	r28, 0x01	; 1
    1942:	c8 15       	cp	r28, r8
    1944:	d9 05       	cpc	r29, r9
    1946:	11 f0       	breq	.+4      	; 0x194c <gfx_print_char_base+0xb4>
    1948:	16 95       	lsr	r17
    194a:	e2 cf       	rjmp	.-60     	; 0x1910 <gfx_print_char_base+0x78>
    194c:	07 fd       	sbrc	r16, 7
    194e:	03 c0       	rjmp	.+6      	; 0x1956 <gfx_print_char_base+0xbe>
    1950:	80 e0       	ldi	r24, 0x00	; 0
    1952:	6c 2d       	mov	r22, r12
    1954:	02 c0       	rjmp	.+4      	; 0x195a <gfx_print_char_base+0xc2>
    1956:	80 e0       	ldi	r24, 0x00	; 0
    1958:	6d 2d       	mov	r22, r13
    195a:	0e 94 5a 09 	call	0x12b4	; 0x12b4 <gfx_display_write2>
    195e:	df 91       	pop	r29
    1960:	cf 91       	pop	r28
    1962:	1f 91       	pop	r17
    1964:	0f 91       	pop	r16
    1966:	ff 90       	pop	r15
    1968:	ef 90       	pop	r14
    196a:	df 90       	pop	r13
    196c:	cf 90       	pop	r12
    196e:	bf 90       	pop	r11
    1970:	af 90       	pop	r10
    1972:	9f 90       	pop	r9
    1974:	8f 90       	pop	r8
    1976:	08 95       	ret

00001978 <gfx_print_char>:
    1978:	ff 92       	push	r15
    197a:	0f 93       	push	r16
    197c:	1f 93       	push	r17
    197e:	08 2f       	mov	r16, r24
    1980:	f0 90 46 04 	lds	r15, 0x0446
    1984:	10 91 4f 04 	lds	r17, 0x044F
    1988:	17 70       	andi	r17, 0x07	; 7
    198a:	61 2f       	mov	r22, r17
    198c:	0e 94 4c 0c 	call	0x1898	; 0x1898 <gfx_print_char_base>
    1990:	11 23       	and	r17, r17
    1992:	91 f0       	breq	.+36     	; 0x19b8 <gfx_print_char+0x40>
    1994:	60 91 4f 04 	lds	r22, 0x044F
    1998:	68 5f       	subi	r22, 0xF8	; 248
    199a:	8f 2d       	mov	r24, r15
    199c:	0e 94 b3 08 	call	0x1166	; 0x1166 <gfx_move>
    19a0:	61 2f       	mov	r22, r17
    19a2:	68 50       	subi	r22, 0x08	; 8
    19a4:	80 2f       	mov	r24, r16
    19a6:	0e 94 4c 0c 	call	0x1898	; 0x1898 <gfx_print_char_base>
    19aa:	60 91 4f 04 	lds	r22, 0x044F
    19ae:	68 50       	subi	r22, 0x08	; 8
    19b0:	80 91 46 04 	lds	r24, 0x0446
    19b4:	0e 94 b3 08 	call	0x1166	; 0x1166 <gfx_move>
    19b8:	1f 91       	pop	r17
    19ba:	0f 91       	pop	r16
    19bc:	ff 90       	pop	r15
    19be:	08 95       	ret

000019c0 <gfx_term_print>:
    19c0:	1f 93       	push	r17
    19c2:	cf 93       	push	r28
    19c4:	df 93       	push	r29
    19c6:	ec 01       	movw	r28, r24
    19c8:	10 92 45 04 	sts	0x0445, r1
    19cc:	36 c0       	rjmp	.+108    	; 0x1a3a <gfx_term_print+0x7a>
    19ce:	1a 30       	cpi	r17, 0x0A	; 10
    19d0:	69 f4       	brne	.+26     	; 0x19ec <gfx_term_print+0x2c>
    19d2:	10 92 50 04 	sts	0x0450, r1
    19d6:	80 91 44 04 	lds	r24, 0x0444
    19da:	8f 5f       	subi	r24, 0xFF	; 255
    19dc:	80 93 44 04 	sts	0x0444, r24
    19e0:	88 30       	cpi	r24, 0x08	; 8
    19e2:	59 f5       	brne	.+86     	; 0x1a3a <gfx_term_print+0x7a>
    19e4:	81 e0       	ldi	r24, 0x01	; 1
    19e6:	0e 94 e8 08 	call	0x11d0	; 0x11d0 <gfx_term_scroll>
    19ea:	27 c0       	rjmp	.+78     	; 0x1a3a <gfx_term_print+0x7a>
    19ec:	1d 30       	cpi	r17, 0x0D	; 13
    19ee:	29 f1       	breq	.+74     	; 0x1a3a <gfx_term_print+0x7a>
    19f0:	80 91 50 04 	lds	r24, 0x0450
    19f4:	85 31       	cpi	r24, 0x15	; 21
    19f6:	60 f0       	brcs	.+24     	; 0x1a10 <gfx_term_print+0x50>
    19f8:	10 92 50 04 	sts	0x0450, r1
    19fc:	80 91 44 04 	lds	r24, 0x0444
    1a00:	8f 5f       	subi	r24, 0xFF	; 255
    1a02:	80 93 44 04 	sts	0x0444, r24
    1a06:	88 30       	cpi	r24, 0x08	; 8
    1a08:	19 f4       	brne	.+6      	; 0x1a10 <gfx_term_print+0x50>
    1a0a:	81 e0       	ldi	r24, 0x01	; 1
    1a0c:	0e 94 e8 08 	call	0x11d0	; 0x11d0 <gfx_term_scroll>
    1a10:	90 91 50 04 	lds	r25, 0x0450
    1a14:	89 2f       	mov	r24, r25
    1a16:	88 0f       	add	r24, r24
    1a18:	89 0f       	add	r24, r25
    1a1a:	60 91 44 04 	lds	r22, 0x0444
    1a1e:	66 0f       	add	r22, r22
    1a20:	66 0f       	add	r22, r22
    1a22:	66 0f       	add	r22, r22
    1a24:	88 0f       	add	r24, r24
    1a26:	0e 94 b3 08 	call	0x1166	; 0x1166 <gfx_move>
    1a2a:	81 2f       	mov	r24, r17
    1a2c:	0e 94 bc 0c 	call	0x1978	; 0x1978 <gfx_print_char>
    1a30:	80 91 50 04 	lds	r24, 0x0450
    1a34:	8f 5f       	subi	r24, 0xFF	; 255
    1a36:	80 93 50 04 	sts	0x0450, r24
    1a3a:	19 91       	ld	r17, Y+
    1a3c:	11 23       	and	r17, r17
    1a3e:	39 f6       	brne	.-114    	; 0x19ce <gfx_term_print+0xe>
    1a40:	df 91       	pop	r29
    1a42:	cf 91       	pop	r28
    1a44:	1f 91       	pop	r17
    1a46:	08 95       	ret

00001a48 <gfx_print_text_P>:
    1a48:	cf 93       	push	r28
    1a4a:	df 93       	push	r29
    1a4c:	ec 01       	movw	r28, r24
    1a4e:	05 c0       	rjmp	.+10     	; 0x1a5a <gfx_print_text_P+0x12>
    1a50:	21 96       	adiw	r28, 0x01	; 1
    1a52:	f9 01       	movw	r30, r18
    1a54:	84 91       	lpm	r24, Z+
    1a56:	0e 94 bc 0c 	call	0x1978	; 0x1978 <gfx_print_char>
    1a5a:	9e 01       	movw	r18, r28
    1a5c:	fe 01       	movw	r30, r28
    1a5e:	94 91       	lpm	r25, Z+
    1a60:	99 23       	and	r25, r25
    1a62:	b1 f7       	brne	.-20     	; 0x1a50 <gfx_print_text_P+0x8>
    1a64:	df 91       	pop	r29
    1a66:	cf 91       	pop	r28
    1a68:	08 95       	ret

00001a6a <gfx_print_text>:
    1a6a:	cf 93       	push	r28
    1a6c:	df 93       	push	r29
    1a6e:	ec 01       	movw	r28, r24
    1a70:	03 c0       	rjmp	.+6      	; 0x1a78 <gfx_print_text+0xe>
    1a72:	21 96       	adiw	r28, 0x01	; 1
    1a74:	0e 94 bc 0c 	call	0x1978	; 0x1978 <gfx_print_char>
    1a78:	88 81       	ld	r24, Y
    1a7a:	88 23       	and	r24, r24
    1a7c:	d1 f7       	brne	.-12     	; 0x1a72 <gfx_print_text+0x8>
    1a7e:	df 91       	pop	r29
    1a80:	cf 91       	pop	r28
    1a82:	08 95       	ret

00001a84 <_copro_check_busy>:
    1a84:	90 e0       	ldi	r25, 0x00	; 0
    1a86:	28 2f       	mov	r18, r24
    1a88:	30 e0       	ldi	r19, 0x00	; 0
    1a8a:	f9 01       	movw	r30, r18
    1a8c:	83 e0       	ldi	r24, 0x03	; 3
    1a8e:	ee 0f       	add	r30, r30
    1a90:	ff 1f       	adc	r31, r31
    1a92:	8a 95       	dec	r24
    1a94:	e1 f7       	brne	.-8      	; 0x1a8e <_copro_check_busy+0xa>
    1a96:	e2 1b       	sub	r30, r18
    1a98:	f3 0b       	sbc	r31, r19
    1a9a:	e9 5a       	subi	r30, 0xA9	; 169
    1a9c:	fb 4f       	sbci	r31, 0xFB	; 251
    1a9e:	80 81       	ld	r24, Z
    1aa0:	8f 3f       	cpi	r24, 0xFF	; 255
    1aa2:	09 f0       	breq	.+2      	; 0x1aa6 <_copro_check_busy+0x22>
    1aa4:	91 e0       	ldi	r25, 0x01	; 1
    1aa6:	89 2f       	mov	r24, r25
    1aa8:	08 95       	ret

00001aaa <copro_update>:
    1aaa:	f8 94       	cli
    1aac:	90 91 8f 04 	lds	r25, 0x048F
    1ab0:	80 e0       	ldi	r24, 0x00	; 0
    1ab2:	ef e8       	ldi	r30, 0x8F	; 143
    1ab4:	f4 e0       	ldi	r31, 0x04	; 4
    1ab6:	22 91       	ld	r18, -Z
    1ab8:	82 0f       	add	r24, r18
    1aba:	91 1d       	adc	r25, r1
    1abc:	90 93 71 04 	sts	0x0471, r25
    1ac0:	80 93 70 04 	sts	0x0470, r24
    1ac4:	93 81       	ldd	r25, Z+3	; 0x03
    1ac6:	80 e0       	ldi	r24, 0x00	; 0
    1ac8:	22 81       	ldd	r18, Z+2	; 0x02
    1aca:	82 0f       	add	r24, r18
    1acc:	91 1d       	adc	r25, r1
    1ace:	90 93 73 04 	sts	0x0473, r25
    1ad2:	80 93 72 04 	sts	0x0472, r24
    1ad6:	95 81       	ldd	r25, Z+5	; 0x05
    1ad8:	80 e0       	ldi	r24, 0x00	; 0
    1ada:	24 81       	ldd	r18, Z+4	; 0x04
    1adc:	82 0f       	add	r24, r18
    1ade:	91 1d       	adc	r25, r1
    1ae0:	90 93 75 04 	sts	0x0475, r25
    1ae4:	80 93 74 04 	sts	0x0474, r24
    1ae8:	97 81       	ldd	r25, Z+7	; 0x07
    1aea:	80 e0       	ldi	r24, 0x00	; 0
    1aec:	26 81       	ldd	r18, Z+6	; 0x06
    1aee:	82 0f       	add	r24, r18
    1af0:	91 1d       	adc	r25, r1
    1af2:	90 93 77 04 	sts	0x0477, r25
    1af6:	80 93 76 04 	sts	0x0476, r24
    1afa:	91 85       	ldd	r25, Z+9	; 0x09
    1afc:	80 e0       	ldi	r24, 0x00	; 0
    1afe:	20 85       	ldd	r18, Z+8	; 0x08
    1b00:	82 0f       	add	r24, r18
    1b02:	91 1d       	adc	r25, r1
    1b04:	90 93 79 04 	sts	0x0479, r25
    1b08:	80 93 78 04 	sts	0x0478, r24
    1b0c:	78 94       	sei
    1b0e:	f8 94       	cli
    1b10:	20 91 98 04 	lds	r18, 0x0498
    1b14:	80 91 53 04 	lds	r24, 0x0453
    1b18:	90 91 54 04 	lds	r25, 0x0454
    1b1c:	82 0f       	add	r24, r18
    1b1e:	91 1d       	adc	r25, r1
    1b20:	30 91 99 04 	lds	r19, 0x0499
    1b24:	20 e0       	ldi	r18, 0x00	; 0
    1b26:	82 0f       	add	r24, r18
    1b28:	93 1f       	adc	r25, r19
    1b2a:	90 93 6d 04 	sts	0x046D, r25
    1b2e:	80 93 6c 04 	sts	0x046C, r24
    1b32:	20 91 9a 04 	lds	r18, 0x049A
    1b36:	80 91 51 04 	lds	r24, 0x0451
    1b3a:	90 91 52 04 	lds	r25, 0x0452
    1b3e:	82 0f       	add	r24, r18
    1b40:	91 1d       	adc	r25, r1
    1b42:	30 91 9b 04 	lds	r19, 0x049B
    1b46:	20 e0       	ldi	r18, 0x00	; 0
    1b48:	82 0f       	add	r24, r18
    1b4a:	93 1f       	adc	r25, r19
    1b4c:	90 93 85 04 	sts	0x0485, r25
    1b50:	80 93 84 04 	sts	0x0484, r24
    1b54:	90 91 9d 04 	lds	r25, 0x049D
    1b58:	80 e0       	ldi	r24, 0x00	; 0
    1b5a:	20 91 9c 04 	lds	r18, 0x049C
    1b5e:	82 0f       	add	r24, r18
    1b60:	91 1d       	adc	r25, r1
    1b62:	90 93 ad 04 	sts	0x04AD, r25
    1b66:	80 93 ac 04 	sts	0x04AC, r24
    1b6a:	90 91 9f 04 	lds	r25, 0x049F
    1b6e:	80 e0       	ldi	r24, 0x00	; 0
    1b70:	20 91 9e 04 	lds	r18, 0x049E
    1b74:	82 0f       	add	r24, r18
    1b76:	91 1d       	adc	r25, r1
    1b78:	90 93 83 04 	sts	0x0483, r25
    1b7c:	80 93 82 04 	sts	0x0482, r24
    1b80:	90 91 a1 04 	lds	r25, 0x04A1
    1b84:	80 e0       	ldi	r24, 0x00	; 0
    1b86:	20 91 a0 04 	lds	r18, 0x04A0
    1b8a:	82 0f       	add	r24, r18
    1b8c:	91 1d       	adc	r25, r1
    1b8e:	90 93 56 04 	sts	0x0456, r25
    1b92:	80 93 55 04 	sts	0x0455, r24
    1b96:	90 91 a3 04 	lds	r25, 0x04A3
    1b9a:	80 e0       	ldi	r24, 0x00	; 0
    1b9c:	20 91 a2 04 	lds	r18, 0x04A2
    1ba0:	82 0f       	add	r24, r18
    1ba2:	91 1d       	adc	r25, r1
    1ba4:	90 93 8d 04 	sts	0x048D, r25
    1ba8:	80 93 8c 04 	sts	0x048C, r24
    1bac:	78 94       	sei
    1bae:	f8 94       	cli
    1bb0:	90 91 a6 04 	lds	r25, 0x04A6
    1bb4:	80 e0       	ldi	r24, 0x00	; 0
    1bb6:	20 91 a5 04 	lds	r18, 0x04A5
    1bba:	82 0f       	add	r24, r18
    1bbc:	91 1d       	adc	r25, r1
    1bbe:	90 93 6f 04 	sts	0x046F, r25
    1bc2:	80 93 6e 04 	sts	0x046E, r24
    1bc6:	90 91 a8 04 	lds	r25, 0x04A8
    1bca:	80 e0       	ldi	r24, 0x00	; 0
    1bcc:	20 91 a7 04 	lds	r18, 0x04A7
    1bd0:	82 0f       	add	r24, r18
    1bd2:	91 1d       	adc	r25, r1
    1bd4:	90 93 aa 04 	sts	0x04AA, r25
    1bd8:	80 93 a9 04 	sts	0x04A9, r24
    1bdc:	78 94       	sei
    1bde:	81 e0       	ldi	r24, 0x01	; 1
    1be0:	08 95       	ret

00001be2 <copro_stop>:
    1be2:	f8 94       	cli
    1be4:	81 e0       	ldi	r24, 0x01	; 1
    1be6:	80 93 57 04 	sts	0x0457, r24
    1bea:	78 94       	sei
    1bec:	08 95       	ret

00001bee <copro_stopImmediate>:
    1bee:	f8 94       	cli
    1bf0:	8a e0       	ldi	r24, 0x0A	; 10
    1bf2:	80 93 57 04 	sts	0x0457, r24
    1bf6:	78 94       	sei
    1bf8:	81 e0       	ldi	r24, 0x01	; 1
    1bfa:	08 95       	ret

00001bfc <copro_setPWM>:
    1bfc:	f8 94       	cli
    1bfe:	25 e0       	ldi	r18, 0x05	; 5
    1c00:	20 93 57 04 	sts	0x0457, r18
    1c04:	80 93 58 04 	sts	0x0458, r24
    1c08:	90 93 59 04 	sts	0x0459, r25
    1c0c:	60 93 5a 04 	sts	0x045A, r22
    1c10:	70 93 5b 04 	sts	0x045B, r23
    1c14:	78 94       	sei
    1c16:	81 e0       	ldi	r24, 0x01	; 1
    1c18:	08 95       	ret

00001c1a <copro_setSpeed>:
    1c1a:	f8 94       	cli
    1c1c:	22 e0       	ldi	r18, 0x02	; 2
    1c1e:	20 93 57 04 	sts	0x0457, r18
    1c22:	80 93 58 04 	sts	0x0458, r24
    1c26:	90 93 59 04 	sts	0x0459, r25
    1c2a:	60 93 5a 04 	sts	0x045A, r22
    1c2e:	70 93 5b 04 	sts	0x045B, r23
    1c32:	78 94       	sei
    1c34:	81 e0       	ldi	r24, 0x01	; 1
    1c36:	08 95       	ret

00001c38 <copro_setTargetAbs>:
    1c38:	20 91 53 04 	lds	r18, 0x0453
    1c3c:	30 91 54 04 	lds	r19, 0x0454
    1c40:	fc 01       	movw	r30, r24
    1c42:	e2 1b       	sub	r30, r18
    1c44:	f3 0b       	sbc	r31, r19
    1c46:	9f 01       	movw	r18, r30
    1c48:	80 91 51 04 	lds	r24, 0x0451
    1c4c:	90 91 52 04 	lds	r25, 0x0452
    1c50:	68 1b       	sub	r22, r24
    1c52:	79 0b       	sbc	r23, r25
    1c54:	f8 94       	cli
    1c56:	83 e0       	ldi	r24, 0x03	; 3
    1c58:	80 93 57 04 	sts	0x0457, r24
    1c5c:	e0 93 58 04 	sts	0x0458, r30
    1c60:	30 93 59 04 	sts	0x0459, r19
    1c64:	60 93 5a 04 	sts	0x045A, r22
    1c68:	70 93 5b 04 	sts	0x045B, r23
    1c6c:	40 93 5c 04 	sts	0x045C, r20
    1c70:	50 93 5d 04 	sts	0x045D, r21
    1c74:	78 94       	sei
    1c76:	81 e0       	ldi	r24, 0x01	; 1
    1c78:	08 95       	ret

00001c7a <copro_setTargetRel>:
    1c7a:	f8 94       	cli
    1c7c:	24 e0       	ldi	r18, 0x04	; 4
    1c7e:	20 93 57 04 	sts	0x0457, r18
    1c82:	80 93 58 04 	sts	0x0458, r24
    1c86:	90 93 59 04 	sts	0x0459, r25
    1c8a:	60 93 5a 04 	sts	0x045A, r22
    1c8e:	70 93 5b 04 	sts	0x045B, r23
    1c92:	40 93 5c 04 	sts	0x045C, r20
    1c96:	50 93 5d 04 	sts	0x045D, r21
    1c9a:	78 94       	sei
    1c9c:	81 e0       	ldi	r24, 0x01	; 1
    1c9e:	08 95       	ret

00001ca0 <copro_setSpeedParameters>:
    1ca0:	78 94       	sei
    1ca2:	90 91 65 04 	lds	r25, 0x0465
    1ca6:	20 e1       	ldi	r18, 0x10	; 16
    1ca8:	37 e2       	ldi	r19, 0x27	; 39
    1caa:	21 50       	subi	r18, 0x01	; 1
    1cac:	30 40       	sbci	r19, 0x00	; 0
    1cae:	11 f0       	breq	.+4      	; 0x1cb4 <copro_setSpeedParameters+0x14>
    1cb0:	9f 3f       	cpi	r25, 0xFF	; 255
    1cb2:	d9 f7       	brne	.-10     	; 0x1caa <copro_setSpeedParameters+0xa>
    1cb4:	f8 94       	cli
    1cb6:	96 e0       	ldi	r25, 0x06	; 6
    1cb8:	90 93 65 04 	sts	0x0465, r25
    1cbc:	80 93 66 04 	sts	0x0466, r24
    1cc0:	60 93 67 04 	sts	0x0467, r22
    1cc4:	40 93 68 04 	sts	0x0468, r20
    1cc8:	78 94       	sei
    1cca:	81 e0       	ldi	r24, 0x01	; 1
    1ccc:	08 95       	ret

00001cce <copro_setPositionParameters>:
    1cce:	81 e0       	ldi	r24, 0x01	; 1
    1cd0:	08 95       	ret

00001cd2 <copro_resetOdometry>:
    1cd2:	f8 94       	cli
    1cd4:	30 91 9b 04 	lds	r19, 0x049B
    1cd8:	20 e0       	ldi	r18, 0x00	; 0
    1cda:	40 91 9a 04 	lds	r20, 0x049A
    1cde:	f9 01       	movw	r30, r18
    1ce0:	e4 0f       	add	r30, r20
    1ce2:	f1 1d       	adc	r31, r1
    1ce4:	af 01       	movw	r20, r30
    1ce6:	30 91 99 04 	lds	r19, 0x0499
    1cea:	20 e0       	ldi	r18, 0x00	; 0
    1cec:	e0 91 98 04 	lds	r30, 0x0498
    1cf0:	2e 0f       	add	r18, r30
    1cf2:	31 1d       	adc	r19, r1
    1cf4:	fc 01       	movw	r30, r24
    1cf6:	e2 1b       	sub	r30, r18
    1cf8:	f3 0b       	sbc	r31, r19
    1cfa:	f0 93 54 04 	sts	0x0454, r31
    1cfe:	e0 93 53 04 	sts	0x0453, r30
    1d02:	9b 01       	movw	r18, r22
    1d04:	24 1b       	sub	r18, r20
    1d06:	35 0b       	sbc	r19, r21
    1d08:	30 93 52 04 	sts	0x0452, r19
    1d0c:	20 93 51 04 	sts	0x0451, r18
    1d10:	90 93 6d 04 	sts	0x046D, r25
    1d14:	80 93 6c 04 	sts	0x046C, r24
    1d18:	70 93 85 04 	sts	0x0485, r23
    1d1c:	60 93 84 04 	sts	0x0484, r22
    1d20:	78 94       	sei
    1d22:	81 e0       	ldi	r24, 0x01	; 1
    1d24:	08 95       	ret

00001d26 <copro_ir_stop>:
    1d26:	78 94       	sei
    1d28:	20 91 5e 04 	lds	r18, 0x045E
    1d2c:	80 e1       	ldi	r24, 0x10	; 16
    1d2e:	97 e2       	ldi	r25, 0x27	; 39
    1d30:	01 97       	sbiw	r24, 0x01	; 1
    1d32:	11 f0       	breq	.+4      	; 0x1d38 <copro_ir_stop+0x12>
    1d34:	2f 3f       	cpi	r18, 0xFF	; 255
    1d36:	e1 f7       	brne	.-8      	; 0x1d30 <copro_ir_stop+0xa>
    1d38:	f8 94       	cli
    1d3a:	88 e0       	ldi	r24, 0x08	; 8
    1d3c:	80 93 5e 04 	sts	0x045E, r24
    1d40:	78 94       	sei
    1d42:	81 e0       	ldi	r24, 0x01	; 1
    1d44:	08 95       	ret

00001d46 <copro_ir_startMeasure>:
    1d46:	78 94       	sei
    1d48:	20 91 5e 04 	lds	r18, 0x045E
    1d4c:	80 e1       	ldi	r24, 0x10	; 16
    1d4e:	97 e2       	ldi	r25, 0x27	; 39
    1d50:	01 97       	sbiw	r24, 0x01	; 1
    1d52:	11 f0       	breq	.+4      	; 0x1d58 <copro_ir_startMeasure+0x12>
    1d54:	2f 3f       	cpi	r18, 0xFF	; 255
    1d56:	e1 f7       	brne	.-8      	; 0x1d50 <copro_ir_startMeasure+0xa>
    1d58:	f8 94       	cli
    1d5a:	87 e0       	ldi	r24, 0x07	; 7
    1d5c:	80 93 5e 04 	sts	0x045E, r24
    1d60:	78 94       	sei
    1d62:	81 e0       	ldi	r24, 0x01	; 1
    1d64:	08 95       	ret

00001d66 <copro_transmitRC5>:
    1d66:	78 94       	sei
    1d68:	40 91 5e 04 	lds	r20, 0x045E
    1d6c:	20 e1       	ldi	r18, 0x10	; 16
    1d6e:	37 e2       	ldi	r19, 0x27	; 39
    1d70:	21 50       	subi	r18, 0x01	; 1
    1d72:	30 40       	sbci	r19, 0x00	; 0
    1d74:	11 f0       	breq	.+4      	; 0x1d7a <copro_transmitRC5+0x14>
    1d76:	4f 3f       	cpi	r20, 0xFF	; 255
    1d78:	d9 f7       	brne	.-10     	; 0x1d70 <copro_transmitRC5+0xa>
    1d7a:	f8 94       	cli
    1d7c:	29 e0       	ldi	r18, 0x09	; 9
    1d7e:	20 93 5e 04 	sts	0x045E, r18
    1d82:	80 93 5f 04 	sts	0x045F, r24
    1d86:	90 93 60 04 	sts	0x0460, r25
    1d8a:	78 94       	sei
    1d8c:	81 e0       	ldi	r24, 0x01	; 1
    1d8e:	08 95       	ret

00001d90 <spi_finished_callback>:
    1d90:	90 91 ab 04 	lds	r25, 0x04AB
    1d94:	9f 5f       	subi	r25, 0xFF	; 255
    1d96:	90 93 ab 04 	sts	0x04AB, r25
    1d9a:	8b 31       	cpi	r24, 0x1B	; 27
    1d9c:	41 f4       	brne	.+16     	; 0x1dae <spi_finished_callback+0x1e>
    1d9e:	ae e8       	ldi	r26, 0x8E	; 142
    1da0:	b4 e0       	ldi	r27, 0x04	; 4
    1da2:	e5 e2       	ldi	r30, 0x25	; 37
    1da4:	f4 e0       	ldi	r31, 0x04	; 4
    1da6:	01 90       	ld	r0, Z+
    1da8:	0d 92       	st	X+, r0
    1daa:	81 50       	subi	r24, 0x01	; 1
    1dac:	e1 f7       	brne	.-8      	; 0x1da6 <spi_finished_callback+0x16>
    1dae:	8f ef       	ldi	r24, 0xFF	; 255
    1db0:	80 93 13 04 	sts	0x0413, r24
    1db4:	80 93 0c 04 	sts	0x040C, r24
    1db8:	80 93 05 04 	sts	0x0405, r24
    1dbc:	80 91 57 04 	lds	r24, 0x0457
    1dc0:	8f 3f       	cpi	r24, 0xFF	; 255
    1dc2:	11 f4       	brne	.+4      	; 0x1dc8 <spi_finished_callback+0x38>
    1dc4:	80 e0       	ldi	r24, 0x00	; 0
    1dc6:	0d c0       	rjmp	.+26     	; 0x1de2 <spi_finished_callback+0x52>
    1dc8:	a5 e0       	ldi	r26, 0x05	; 5
    1dca:	b4 e0       	ldi	r27, 0x04	; 4
    1dcc:	e7 e5       	ldi	r30, 0x57	; 87
    1dce:	f4 e0       	ldi	r31, 0x04	; 4
    1dd0:	87 e0       	ldi	r24, 0x07	; 7
    1dd2:	01 90       	ld	r0, Z+
    1dd4:	0d 92       	st	X+, r0
    1dd6:	81 50       	subi	r24, 0x01	; 1
    1dd8:	e1 f7       	brne	.-8      	; 0x1dd2 <spi_finished_callback+0x42>
    1dda:	8f ef       	ldi	r24, 0xFF	; 255
    1ddc:	80 93 57 04 	sts	0x0457, r24
    1de0:	87 e0       	ldi	r24, 0x07	; 7
    1de2:	90 91 5e 04 	lds	r25, 0x045E
    1de6:	9f 3f       	cpi	r25, 0xFF	; 255
    1de8:	79 f0       	breq	.+30     	; 0x1e08 <spi_finished_callback+0x78>
    1dea:	e8 2f       	mov	r30, r24
    1dec:	f0 e0       	ldi	r31, 0x00	; 0
    1dee:	eb 5f       	subi	r30, 0xFB	; 251
    1df0:	fb 4f       	sbci	r31, 0xFB	; 251
    1df2:	ae e5       	ldi	r26, 0x5E	; 94
    1df4:	b4 e0       	ldi	r27, 0x04	; 4
    1df6:	97 e0       	ldi	r25, 0x07	; 7
    1df8:	0d 90       	ld	r0, X+
    1dfa:	01 92       	st	Z+, r0
    1dfc:	91 50       	subi	r25, 0x01	; 1
    1dfe:	e1 f7       	brne	.-8      	; 0x1df8 <spi_finished_callback+0x68>
    1e00:	9f ef       	ldi	r25, 0xFF	; 255
    1e02:	90 93 5e 04 	sts	0x045E, r25
    1e06:	89 5f       	subi	r24, 0xF9	; 249
    1e08:	90 91 65 04 	lds	r25, 0x0465
    1e0c:	9f 3f       	cpi	r25, 0xFF	; 255
    1e0e:	81 f0       	breq	.+32     	; 0x1e30 <spi_finished_callback+0xa0>
    1e10:	e8 2f       	mov	r30, r24
    1e12:	f0 e0       	ldi	r31, 0x00	; 0
    1e14:	eb 5f       	subi	r30, 0xFB	; 251
    1e16:	fb 4f       	sbci	r31, 0xFB	; 251
    1e18:	a5 e6       	ldi	r26, 0x65	; 101
    1e1a:	b4 e0       	ldi	r27, 0x04	; 4
    1e1c:	87 e0       	ldi	r24, 0x07	; 7
    1e1e:	0d 90       	ld	r0, X+
    1e20:	01 92       	st	Z+, r0
    1e22:	81 50       	subi	r24, 0x01	; 1
    1e24:	e1 f7       	brne	.-8      	; 0x1e1e <spi_finished_callback+0x8e>
    1e26:	8f ef       	ldi	r24, 0xFF	; 255
    1e28:	80 93 65 04 	sts	0x0465, r24
    1e2c:	85 e1       	ldi	r24, 0x15	; 21
    1e2e:	08 95       	ret
    1e30:	88 23       	and	r24, r24
    1e32:	11 f4       	brne	.+4      	; 0x1e38 <spi_finished_callback+0xa8>
    1e34:	87 e0       	ldi	r24, 0x07	; 7
    1e36:	08 95       	ret
    1e38:	85 e1       	ldi	r24, 0x15	; 21
    1e3a:	08 95       	ret

00001e3c <bot_update>:
    1e3c:	87 e0       	ldi	r24, 0x07	; 7
    1e3e:	0e 94 c8 0f 	call	0x1f90	; 0x1f90 <adc_read>
    1e42:	90 93 af 04 	sts	0x04AF, r25
    1e46:	80 93 ae 04 	sts	0x04AE, r24
    1e4a:	08 95       	ret

00001e4c <bot_init>:
    1e4c:	8f 9a       	sbi	0x11, 7	; 17
    1e4e:	97 98       	cbi	0x12, 7	; 18
    1e50:	8a e0       	ldi	r24, 0x0A	; 10
    1e52:	90 e0       	ldi	r25, 0x00	; 0
    1e54:	0e 94 b3 06 	call	0xd66	; 0xd66 <delay>
    1e58:	97 9a       	sbi	0x12, 7	; 18
    1e5a:	84 e6       	ldi	r24, 0x64	; 100
    1e5c:	90 e0       	ldi	r25, 0x00	; 0
    1e5e:	0e 94 b3 06 	call	0xd66	; 0xd66 <delay>
    1e62:	08 95       	ret

00001e64 <leds_init>:
    1e64:	bf 9a       	sbi	0x17, 7	; 23
    1e66:	c7 9a       	sbi	0x18, 7	; 24
    1e68:	bd 9a       	sbi	0x17, 5	; 23
    1e6a:	be 9a       	sbi	0x17, 6	; 23
    1e6c:	8f ef       	ldi	r24, 0xFF	; 255
    1e6e:	82 b9       	out	0x02, r24	; 2
    1e70:	84 bb       	out	0x14, r24	; 20
    1e72:	08 95       	ret

00001e74 <leds_set_status>:
    1e74:	48 2f       	mov	r20, r24
    1e76:	80 ff       	sbrs	r24, 0
    1e78:	0b c0       	rjmp	.+22     	; 0x1e90 <leds_set_status+0x1c>
    1e7a:	95 b3       	in	r25, 0x15	; 21
    1e7c:	21 e0       	ldi	r18, 0x01	; 1
    1e7e:	30 e0       	ldi	r19, 0x00	; 0
    1e80:	06 2e       	mov	r0, r22
    1e82:	02 c0       	rjmp	.+4      	; 0x1e88 <leds_set_status+0x14>
    1e84:	22 0f       	add	r18, r18
    1e86:	33 1f       	adc	r19, r19
    1e88:	0a 94       	dec	r0
    1e8a:	e2 f7       	brpl	.-8      	; 0x1e84 <leds_set_status+0x10>
    1e8c:	92 2b       	or	r25, r18
    1e8e:	0c c0       	rjmp	.+24     	; 0x1ea8 <leds_set_status+0x34>
    1e90:	85 b3       	in	r24, 0x15	; 21
    1e92:	21 e0       	ldi	r18, 0x01	; 1
    1e94:	30 e0       	ldi	r19, 0x00	; 0
    1e96:	06 2e       	mov	r0, r22
    1e98:	02 c0       	rjmp	.+4      	; 0x1e9e <leds_set_status+0x2a>
    1e9a:	22 0f       	add	r18, r18
    1e9c:	33 1f       	adc	r19, r19
    1e9e:	0a 94       	dec	r0
    1ea0:	e2 f7       	brpl	.-8      	; 0x1e9a <leds_set_status+0x26>
    1ea2:	92 2f       	mov	r25, r18
    1ea4:	90 95       	com	r25
    1ea6:	98 23       	and	r25, r24
    1ea8:	95 bb       	out	0x15, r25	; 21
    1eaa:	41 ff       	sbrs	r20, 1
    1eac:	0a c0       	rjmp	.+20     	; 0x1ec2 <leds_set_status+0x4e>
    1eae:	83 b1       	in	r24, 0x03	; 3
    1eb0:	21 e0       	ldi	r18, 0x01	; 1
    1eb2:	30 e0       	ldi	r19, 0x00	; 0
    1eb4:	02 c0       	rjmp	.+4      	; 0x1eba <leds_set_status+0x46>
    1eb6:	22 0f       	add	r18, r18
    1eb8:	33 1f       	adc	r19, r19
    1eba:	6a 95       	dec	r22
    1ebc:	e2 f7       	brpl	.-8      	; 0x1eb6 <leds_set_status+0x42>
    1ebe:	82 2b       	or	r24, r18
    1ec0:	0a c0       	rjmp	.+20     	; 0x1ed6 <leds_set_status+0x62>
    1ec2:	23 b1       	in	r18, 0x03	; 3
    1ec4:	81 e0       	ldi	r24, 0x01	; 1
    1ec6:	90 e0       	ldi	r25, 0x00	; 0
    1ec8:	02 c0       	rjmp	.+4      	; 0x1ece <leds_set_status+0x5a>
    1eca:	88 0f       	add	r24, r24
    1ecc:	99 1f       	adc	r25, r25
    1ece:	6a 95       	dec	r22
    1ed0:	e2 f7       	brpl	.-8      	; 0x1eca <leds_set_status+0x56>
    1ed2:	80 95       	com	r24
    1ed4:	82 23       	and	r24, r18
    1ed6:	83 b9       	out	0x03, r24	; 3
    1ed8:	08 95       	ret

00001eda <leds_set_status_intensity>:
    1eda:	90 93 fe 03 	sts	0x03FE, r25
    1ede:	80 93 fd 03 	sts	0x03FD, r24
    1ee2:	08 95       	ret

00001ee4 <leds_get_status_intensity>:
    1ee4:	80 91 fd 03 	lds	r24, 0x03FD
    1ee8:	90 91 fe 03 	lds	r25, 0x03FE
    1eec:	08 95       	ret

00001eee <leds_set_headlights>:
    1eee:	90 93 f8 03 	sts	0x03F8, r25
    1ef2:	80 93 f7 03 	sts	0x03F7, r24
    1ef6:	08 95       	ret

00001ef8 <leds_get_headlights>:
    1ef8:	80 91 f7 03 	lds	r24, 0x03F7
    1efc:	90 91 f8 03 	lds	r25, 0x03F8
    1f00:	08 95       	ret

00001f02 <leds_set_displaylight>:
    1f02:	90 93 fa 03 	sts	0x03FA, r25
    1f06:	80 93 f9 03 	sts	0x03F9, r24
    1f0a:	08 95       	ret

00001f0c <leds_get_displaylight>:
    1f0c:	80 91 f9 03 	lds	r24, 0x03F9
    1f10:	90 91 fa 03 	lds	r25, 0x03FA
    1f14:	08 95       	ret

00001f16 <sound_init>:
    1f16:	bc 9a       	sbi	0x17, 4	; 23
    1f18:	08 95       	ret

00001f1a <sound_tone>:
    1f1a:	45 e3       	ldi	r20, 0x35	; 53
    1f1c:	22 c0       	rjmp	.+68     	; 0x1f62 <sound_tone+0x48>
    1f1e:	c4 98       	cbi	0x18, 4	; 24
    1f20:	28 2f       	mov	r18, r24
    1f22:	39 2f       	mov	r19, r25
    1f24:	0a c0       	rjmp	.+20     	; 0x1f3a <sound_tone+0x20>
    1f26:	61 50       	subi	r22, 0x01	; 1
    1f28:	70 40       	sbci	r23, 0x00	; 0
    1f2a:	54 2f       	mov	r21, r20
    1f2c:	5a 95       	dec	r21
    1f2e:	f1 f7       	brne	.-4      	; 0x1f2c <sound_tone+0x12>
    1f30:	61 15       	cp	r22, r1
    1f32:	71 05       	cpc	r23, r1
    1f34:	29 f0       	breq	.+10     	; 0x1f40 <sound_tone+0x26>
    1f36:	21 50       	subi	r18, 0x01	; 1
    1f38:	30 40       	sbci	r19, 0x00	; 0
    1f3a:	21 15       	cp	r18, r1
    1f3c:	31 05       	cpc	r19, r1
    1f3e:	99 f7       	brne	.-26     	; 0x1f26 <sound_tone+0xc>
    1f40:	c4 9a       	sbi	0x18, 4	; 24
    1f42:	28 2f       	mov	r18, r24
    1f44:	39 2f       	mov	r19, r25
    1f46:	07 c0       	rjmp	.+14     	; 0x1f56 <sound_tone+0x3c>
    1f48:	61 50       	subi	r22, 0x01	; 1
    1f4a:	70 40       	sbci	r23, 0x00	; 0
    1f4c:	21 50       	subi	r18, 0x01	; 1
    1f4e:	30 40       	sbci	r19, 0x00	; 0
    1f50:	54 2f       	mov	r21, r20
    1f52:	5a 95       	dec	r21
    1f54:	f1 f7       	brne	.-4      	; 0x1f52 <sound_tone+0x38>
    1f56:	61 15       	cp	r22, r1
    1f58:	71 05       	cpc	r23, r1
    1f5a:	19 f0       	breq	.+6      	; 0x1f62 <sound_tone+0x48>
    1f5c:	21 15       	cp	r18, r1
    1f5e:	31 05       	cpc	r19, r1
    1f60:	99 f7       	brne	.-26     	; 0x1f48 <sound_tone+0x2e>
    1f62:	61 15       	cp	r22, r1
    1f64:	71 05       	cpc	r23, r1
    1f66:	d9 f6       	brne	.-74     	; 0x1f1e <sound_tone+0x4>
    1f68:	08 95       	ret

00001f6a <adc_init>:
    1f6a:	e1 e6       	ldi	r30, 0x61	; 97
    1f6c:	f0 e0       	ldi	r31, 0x00	; 0
    1f6e:	90 81       	ld	r25, Z
    1f70:	21 e0       	ldi	r18, 0x01	; 1
    1f72:	30 e0       	ldi	r19, 0x00	; 0
    1f74:	02 c0       	rjmp	.+4      	; 0x1f7a <adc_init+0x10>
    1f76:	22 0f       	add	r18, r18
    1f78:	33 1f       	adc	r19, r19
    1f7a:	8a 95       	dec	r24
    1f7c:	e2 f7       	brpl	.-8      	; 0x1f76 <adc_init+0xc>
    1f7e:	20 95       	com	r18
    1f80:	92 23       	and	r25, r18
    1f82:	90 83       	st	Z, r25
    1f84:	e2 e6       	ldi	r30, 0x62	; 98
    1f86:	f0 e0       	ldi	r31, 0x00	; 0
    1f88:	80 81       	ld	r24, Z
    1f8a:	82 23       	and	r24, r18
    1f8c:	80 83       	st	Z, r24
    1f8e:	08 95       	ret

00001f90 <adc_read>:
    1f90:	90 e4       	ldi	r25, 0x40	; 64
    1f92:	97 b9       	out	0x07, r25	; 7
    1f94:	97 b1       	in	r25, 0x07	; 7
    1f96:	87 70       	andi	r24, 0x07	; 7
    1f98:	89 2b       	or	r24, r25
    1f9a:	87 b9       	out	0x07, r24	; 7
    1f9c:	87 ec       	ldi	r24, 0xC7	; 199
    1f9e:	86 b9       	out	0x06, r24	; 6
    1fa0:	01 c0       	rjmp	.+2      	; 0x1fa4 <adc_read+0x14>
    1fa2:	00 00       	nop
    1fa4:	36 99       	sbic	0x06, 6	; 6
    1fa6:	fd cf       	rjmp	.-6      	; 0x1fa2 <adc_read+0x12>
    1fa8:	84 b1       	in	r24, 0x04	; 4
    1faa:	95 b1       	in	r25, 0x05	; 5
    1fac:	39 2f       	mov	r19, r25
    1fae:	20 e0       	ldi	r18, 0x00	; 0
    1fb0:	28 0f       	add	r18, r24
    1fb2:	31 1d       	adc	r19, r1
    1fb4:	80 91 b0 04 	lds	r24, 0x04B0
    1fb8:	90 91 b1 04 	lds	r25, 0x04B1
    1fbc:	82 0f       	add	r24, r18
    1fbe:	93 1f       	adc	r25, r19
    1fc0:	90 93 b1 04 	sts	0x04B1, r25
    1fc4:	80 93 b0 04 	sts	0x04B0, r24
    1fc8:	c9 01       	movw	r24, r18
    1fca:	08 95       	ret

00001fcc <adc_get_random_seed>:
    1fcc:	80 91 b0 04 	lds	r24, 0x04B0
    1fd0:	90 91 b1 04 	lds	r25, 0x04B1
    1fd4:	08 95       	ret

00001fd6 <__subsf3>:
    1fd6:	50 58       	subi	r21, 0x80	; 128

00001fd8 <__addsf3>:
    1fd8:	bb 27       	eor	r27, r27
    1fda:	aa 27       	eor	r26, r26
    1fdc:	0e d0       	rcall	.+28     	; 0x1ffa <__addsf3x>
    1fde:	b4 c0       	rjmp	.+360    	; 0x2148 <__fp_round>
    1fe0:	a5 d0       	rcall	.+330    	; 0x212c <__fp_pscA>
    1fe2:	30 f0       	brcs	.+12     	; 0x1ff0 <__addsf3+0x18>
    1fe4:	aa d0       	rcall	.+340    	; 0x213a <__fp_pscB>
    1fe6:	20 f0       	brcs	.+8      	; 0x1ff0 <__addsf3+0x18>
    1fe8:	31 f4       	brne	.+12     	; 0x1ff6 <__addsf3+0x1e>
    1fea:	9f 3f       	cpi	r25, 0xFF	; 255
    1fec:	11 f4       	brne	.+4      	; 0x1ff2 <__addsf3+0x1a>
    1fee:	1e f4       	brtc	.+6      	; 0x1ff6 <__addsf3+0x1e>
    1ff0:	9a c0       	rjmp	.+308    	; 0x2126 <__fp_nan>
    1ff2:	0e f4       	brtc	.+2      	; 0x1ff6 <__addsf3+0x1e>
    1ff4:	e0 95       	com	r30
    1ff6:	e7 fb       	bst	r30, 7
    1ff8:	90 c0       	rjmp	.+288    	; 0x211a <__fp_inf>

00001ffa <__addsf3x>:
    1ffa:	e9 2f       	mov	r30, r25
    1ffc:	b6 d0       	rcall	.+364    	; 0x216a <__fp_split3>
    1ffe:	80 f3       	brcs	.-32     	; 0x1fe0 <__addsf3+0x8>
    2000:	ba 17       	cp	r27, r26
    2002:	62 07       	cpc	r22, r18
    2004:	73 07       	cpc	r23, r19
    2006:	84 07       	cpc	r24, r20
    2008:	95 07       	cpc	r25, r21
    200a:	18 f0       	brcs	.+6      	; 0x2012 <__addsf3x+0x18>
    200c:	71 f4       	brne	.+28     	; 0x202a <__addsf3x+0x30>
    200e:	9e f5       	brtc	.+102    	; 0x2076 <__addsf3x+0x7c>
    2010:	ce c0       	rjmp	.+412    	; 0x21ae <__fp_zero>
    2012:	0e f4       	brtc	.+2      	; 0x2016 <__addsf3x+0x1c>
    2014:	e0 95       	com	r30
    2016:	0b 2e       	mov	r0, r27
    2018:	ba 2f       	mov	r27, r26
    201a:	a0 2d       	mov	r26, r0
    201c:	0b 01       	movw	r0, r22
    201e:	b9 01       	movw	r22, r18
    2020:	90 01       	movw	r18, r0
    2022:	0c 01       	movw	r0, r24
    2024:	ca 01       	movw	r24, r20
    2026:	a0 01       	movw	r20, r0
    2028:	11 24       	eor	r1, r1
    202a:	ff 27       	eor	r31, r31
    202c:	59 1b       	sub	r21, r25
    202e:	99 f0       	breq	.+38     	; 0x2056 <__addsf3x+0x5c>
    2030:	59 3f       	cpi	r21, 0xF9	; 249
    2032:	50 f4       	brcc	.+20     	; 0x2048 <__addsf3x+0x4e>
    2034:	50 3e       	cpi	r21, 0xE0	; 224
    2036:	68 f1       	brcs	.+90     	; 0x2092 <__addsf3x+0x98>
    2038:	1a 16       	cp	r1, r26
    203a:	f0 40       	sbci	r31, 0x00	; 0
    203c:	a2 2f       	mov	r26, r18
    203e:	23 2f       	mov	r18, r19
    2040:	34 2f       	mov	r19, r20
    2042:	44 27       	eor	r20, r20
    2044:	58 5f       	subi	r21, 0xF8	; 248
    2046:	f3 cf       	rjmp	.-26     	; 0x202e <__addsf3x+0x34>
    2048:	46 95       	lsr	r20
    204a:	37 95       	ror	r19
    204c:	27 95       	ror	r18
    204e:	a7 95       	ror	r26
    2050:	f0 40       	sbci	r31, 0x00	; 0
    2052:	53 95       	inc	r21
    2054:	c9 f7       	brne	.-14     	; 0x2048 <__addsf3x+0x4e>
    2056:	7e f4       	brtc	.+30     	; 0x2076 <__addsf3x+0x7c>
    2058:	1f 16       	cp	r1, r31
    205a:	ba 0b       	sbc	r27, r26
    205c:	62 0b       	sbc	r22, r18
    205e:	73 0b       	sbc	r23, r19
    2060:	84 0b       	sbc	r24, r20
    2062:	ba f0       	brmi	.+46     	; 0x2092 <__addsf3x+0x98>
    2064:	91 50       	subi	r25, 0x01	; 1
    2066:	a1 f0       	breq	.+40     	; 0x2090 <__addsf3x+0x96>
    2068:	ff 0f       	add	r31, r31
    206a:	bb 1f       	adc	r27, r27
    206c:	66 1f       	adc	r22, r22
    206e:	77 1f       	adc	r23, r23
    2070:	88 1f       	adc	r24, r24
    2072:	c2 f7       	brpl	.-16     	; 0x2064 <__addsf3x+0x6a>
    2074:	0e c0       	rjmp	.+28     	; 0x2092 <__addsf3x+0x98>
    2076:	ba 0f       	add	r27, r26
    2078:	62 1f       	adc	r22, r18
    207a:	73 1f       	adc	r23, r19
    207c:	84 1f       	adc	r24, r20
    207e:	48 f4       	brcc	.+18     	; 0x2092 <__addsf3x+0x98>
    2080:	87 95       	ror	r24
    2082:	77 95       	ror	r23
    2084:	67 95       	ror	r22
    2086:	b7 95       	ror	r27
    2088:	f7 95       	ror	r31
    208a:	9e 3f       	cpi	r25, 0xFE	; 254
    208c:	08 f0       	brcs	.+2      	; 0x2090 <__addsf3x+0x96>
    208e:	b3 cf       	rjmp	.-154    	; 0x1ff6 <__addsf3+0x1e>
    2090:	93 95       	inc	r25
    2092:	88 0f       	add	r24, r24
    2094:	08 f0       	brcs	.+2      	; 0x2098 <__addsf3x+0x9e>
    2096:	99 27       	eor	r25, r25
    2098:	ee 0f       	add	r30, r30
    209a:	97 95       	ror	r25
    209c:	87 95       	ror	r24
    209e:	08 95       	ret

000020a0 <__floatunsisf>:
    20a0:	e8 94       	clt
    20a2:	09 c0       	rjmp	.+18     	; 0x20b6 <__floatsisf+0x12>

000020a4 <__floatsisf>:
    20a4:	97 fb       	bst	r25, 7
    20a6:	3e f4       	brtc	.+14     	; 0x20b6 <__floatsisf+0x12>
    20a8:	90 95       	com	r25
    20aa:	80 95       	com	r24
    20ac:	70 95       	com	r23
    20ae:	61 95       	neg	r22
    20b0:	7f 4f       	sbci	r23, 0xFF	; 255
    20b2:	8f 4f       	sbci	r24, 0xFF	; 255
    20b4:	9f 4f       	sbci	r25, 0xFF	; 255
    20b6:	99 23       	and	r25, r25
    20b8:	a9 f0       	breq	.+42     	; 0x20e4 <__floatsisf+0x40>
    20ba:	f9 2f       	mov	r31, r25
    20bc:	96 e9       	ldi	r25, 0x96	; 150
    20be:	bb 27       	eor	r27, r27
    20c0:	93 95       	inc	r25
    20c2:	f6 95       	lsr	r31
    20c4:	87 95       	ror	r24
    20c6:	77 95       	ror	r23
    20c8:	67 95       	ror	r22
    20ca:	b7 95       	ror	r27
    20cc:	f1 11       	cpse	r31, r1
    20ce:	f8 cf       	rjmp	.-16     	; 0x20c0 <__floatsisf+0x1c>
    20d0:	fa f4       	brpl	.+62     	; 0x2110 <__floatsisf+0x6c>
    20d2:	bb 0f       	add	r27, r27
    20d4:	11 f4       	brne	.+4      	; 0x20da <__floatsisf+0x36>
    20d6:	60 ff       	sbrs	r22, 0
    20d8:	1b c0       	rjmp	.+54     	; 0x2110 <__floatsisf+0x6c>
    20da:	6f 5f       	subi	r22, 0xFF	; 255
    20dc:	7f 4f       	sbci	r23, 0xFF	; 255
    20de:	8f 4f       	sbci	r24, 0xFF	; 255
    20e0:	9f 4f       	sbci	r25, 0xFF	; 255
    20e2:	16 c0       	rjmp	.+44     	; 0x2110 <__floatsisf+0x6c>
    20e4:	88 23       	and	r24, r24
    20e6:	11 f0       	breq	.+4      	; 0x20ec <__floatsisf+0x48>
    20e8:	96 e9       	ldi	r25, 0x96	; 150
    20ea:	11 c0       	rjmp	.+34     	; 0x210e <__floatsisf+0x6a>
    20ec:	77 23       	and	r23, r23
    20ee:	21 f0       	breq	.+8      	; 0x20f8 <__floatsisf+0x54>
    20f0:	9e e8       	ldi	r25, 0x8E	; 142
    20f2:	87 2f       	mov	r24, r23
    20f4:	76 2f       	mov	r23, r22
    20f6:	05 c0       	rjmp	.+10     	; 0x2102 <__floatsisf+0x5e>
    20f8:	66 23       	and	r22, r22
    20fa:	71 f0       	breq	.+28     	; 0x2118 <__floatsisf+0x74>
    20fc:	96 e8       	ldi	r25, 0x86	; 134
    20fe:	86 2f       	mov	r24, r22
    2100:	70 e0       	ldi	r23, 0x00	; 0
    2102:	60 e0       	ldi	r22, 0x00	; 0
    2104:	2a f0       	brmi	.+10     	; 0x2110 <__floatsisf+0x6c>
    2106:	9a 95       	dec	r25
    2108:	66 0f       	add	r22, r22
    210a:	77 1f       	adc	r23, r23
    210c:	88 1f       	adc	r24, r24
    210e:	da f7       	brpl	.-10     	; 0x2106 <__floatsisf+0x62>
    2110:	88 0f       	add	r24, r24
    2112:	96 95       	lsr	r25
    2114:	87 95       	ror	r24
    2116:	97 f9       	bld	r25, 7
    2118:	08 95       	ret

0000211a <__fp_inf>:
    211a:	97 f9       	bld	r25, 7
    211c:	9f 67       	ori	r25, 0x7F	; 127
    211e:	80 e8       	ldi	r24, 0x80	; 128
    2120:	70 e0       	ldi	r23, 0x00	; 0
    2122:	60 e0       	ldi	r22, 0x00	; 0
    2124:	08 95       	ret

00002126 <__fp_nan>:
    2126:	9f ef       	ldi	r25, 0xFF	; 255
    2128:	80 ec       	ldi	r24, 0xC0	; 192
    212a:	08 95       	ret

0000212c <__fp_pscA>:
    212c:	00 24       	eor	r0, r0
    212e:	0a 94       	dec	r0
    2130:	16 16       	cp	r1, r22
    2132:	17 06       	cpc	r1, r23
    2134:	18 06       	cpc	r1, r24
    2136:	09 06       	cpc	r0, r25
    2138:	08 95       	ret

0000213a <__fp_pscB>:
    213a:	00 24       	eor	r0, r0
    213c:	0a 94       	dec	r0
    213e:	12 16       	cp	r1, r18
    2140:	13 06       	cpc	r1, r19
    2142:	14 06       	cpc	r1, r20
    2144:	05 06       	cpc	r0, r21
    2146:	08 95       	ret

00002148 <__fp_round>:
    2148:	09 2e       	mov	r0, r25
    214a:	03 94       	inc	r0
    214c:	00 0c       	add	r0, r0
    214e:	11 f4       	brne	.+4      	; 0x2154 <__fp_round+0xc>
    2150:	88 23       	and	r24, r24
    2152:	52 f0       	brmi	.+20     	; 0x2168 <__fp_round+0x20>
    2154:	bb 0f       	add	r27, r27
    2156:	40 f4       	brcc	.+16     	; 0x2168 <__fp_round+0x20>
    2158:	bf 2b       	or	r27, r31
    215a:	11 f4       	brne	.+4      	; 0x2160 <__fp_round+0x18>
    215c:	60 ff       	sbrs	r22, 0
    215e:	04 c0       	rjmp	.+8      	; 0x2168 <__fp_round+0x20>
    2160:	6f 5f       	subi	r22, 0xFF	; 255
    2162:	7f 4f       	sbci	r23, 0xFF	; 255
    2164:	8f 4f       	sbci	r24, 0xFF	; 255
    2166:	9f 4f       	sbci	r25, 0xFF	; 255
    2168:	08 95       	ret

0000216a <__fp_split3>:
    216a:	57 fd       	sbrc	r21, 7
    216c:	90 58       	subi	r25, 0x80	; 128
    216e:	44 0f       	add	r20, r20
    2170:	55 1f       	adc	r21, r21
    2172:	59 f0       	breq	.+22     	; 0x218a <__fp_splitA+0x10>
    2174:	5f 3f       	cpi	r21, 0xFF	; 255
    2176:	71 f0       	breq	.+28     	; 0x2194 <__fp_splitA+0x1a>
    2178:	47 95       	ror	r20

0000217a <__fp_splitA>:
    217a:	88 0f       	add	r24, r24
    217c:	97 fb       	bst	r25, 7
    217e:	99 1f       	adc	r25, r25
    2180:	61 f0       	breq	.+24     	; 0x219a <__fp_splitA+0x20>
    2182:	9f 3f       	cpi	r25, 0xFF	; 255
    2184:	79 f0       	breq	.+30     	; 0x21a4 <__fp_splitA+0x2a>
    2186:	87 95       	ror	r24
    2188:	08 95       	ret
    218a:	12 16       	cp	r1, r18
    218c:	13 06       	cpc	r1, r19
    218e:	14 06       	cpc	r1, r20
    2190:	55 1f       	adc	r21, r21
    2192:	f2 cf       	rjmp	.-28     	; 0x2178 <__fp_split3+0xe>
    2194:	46 95       	lsr	r20
    2196:	f1 df       	rcall	.-30     	; 0x217a <__fp_splitA>
    2198:	08 c0       	rjmp	.+16     	; 0x21aa <__fp_splitA+0x30>
    219a:	16 16       	cp	r1, r22
    219c:	17 06       	cpc	r1, r23
    219e:	18 06       	cpc	r1, r24
    21a0:	99 1f       	adc	r25, r25
    21a2:	f1 cf       	rjmp	.-30     	; 0x2186 <__fp_splitA+0xc>
    21a4:	86 95       	lsr	r24
    21a6:	71 05       	cpc	r23, r1
    21a8:	61 05       	cpc	r22, r1
    21aa:	08 94       	sec
    21ac:	08 95       	ret

000021ae <__fp_zero>:
    21ae:	e8 94       	clt

000021b0 <__fp_szero>:
    21b0:	bb 27       	eor	r27, r27
    21b2:	66 27       	eor	r22, r22
    21b4:	77 27       	eor	r23, r23
    21b6:	cb 01       	movw	r24, r22
    21b8:	97 f9       	bld	r25, 7
    21ba:	08 95       	ret

000021bc <__mulsf3>:
    21bc:	0b d0       	rcall	.+22     	; 0x21d4 <__mulsf3x>
    21be:	c4 cf       	rjmp	.-120    	; 0x2148 <__fp_round>
    21c0:	b5 df       	rcall	.-150    	; 0x212c <__fp_pscA>
    21c2:	28 f0       	brcs	.+10     	; 0x21ce <__mulsf3+0x12>
    21c4:	ba df       	rcall	.-140    	; 0x213a <__fp_pscB>
    21c6:	18 f0       	brcs	.+6      	; 0x21ce <__mulsf3+0x12>
    21c8:	95 23       	and	r25, r21
    21ca:	09 f0       	breq	.+2      	; 0x21ce <__mulsf3+0x12>
    21cc:	a6 cf       	rjmp	.-180    	; 0x211a <__fp_inf>
    21ce:	ab cf       	rjmp	.-170    	; 0x2126 <__fp_nan>
    21d0:	11 24       	eor	r1, r1
    21d2:	ee cf       	rjmp	.-36     	; 0x21b0 <__fp_szero>

000021d4 <__mulsf3x>:
    21d4:	ca df       	rcall	.-108    	; 0x216a <__fp_split3>
    21d6:	a0 f3       	brcs	.-24     	; 0x21c0 <__mulsf3+0x4>

000021d8 <__mulsf3_pse>:
    21d8:	95 9f       	mul	r25, r21
    21da:	d1 f3       	breq	.-12     	; 0x21d0 <__mulsf3+0x14>
    21dc:	95 0f       	add	r25, r21
    21de:	50 e0       	ldi	r21, 0x00	; 0
    21e0:	55 1f       	adc	r21, r21
    21e2:	62 9f       	mul	r22, r18
    21e4:	f0 01       	movw	r30, r0
    21e6:	72 9f       	mul	r23, r18
    21e8:	bb 27       	eor	r27, r27
    21ea:	f0 0d       	add	r31, r0
    21ec:	b1 1d       	adc	r27, r1
    21ee:	63 9f       	mul	r22, r19
    21f0:	aa 27       	eor	r26, r26
    21f2:	f0 0d       	add	r31, r0
    21f4:	b1 1d       	adc	r27, r1
    21f6:	aa 1f       	adc	r26, r26
    21f8:	64 9f       	mul	r22, r20
    21fa:	66 27       	eor	r22, r22
    21fc:	b0 0d       	add	r27, r0
    21fe:	a1 1d       	adc	r26, r1
    2200:	66 1f       	adc	r22, r22
    2202:	82 9f       	mul	r24, r18
    2204:	22 27       	eor	r18, r18
    2206:	b0 0d       	add	r27, r0
    2208:	a1 1d       	adc	r26, r1
    220a:	62 1f       	adc	r22, r18
    220c:	73 9f       	mul	r23, r19
    220e:	b0 0d       	add	r27, r0
    2210:	a1 1d       	adc	r26, r1
    2212:	62 1f       	adc	r22, r18
    2214:	83 9f       	mul	r24, r19
    2216:	a0 0d       	add	r26, r0
    2218:	61 1d       	adc	r22, r1
    221a:	22 1f       	adc	r18, r18
    221c:	74 9f       	mul	r23, r20
    221e:	33 27       	eor	r19, r19
    2220:	a0 0d       	add	r26, r0
    2222:	61 1d       	adc	r22, r1
    2224:	23 1f       	adc	r18, r19
    2226:	84 9f       	mul	r24, r20
    2228:	60 0d       	add	r22, r0
    222a:	21 1d       	adc	r18, r1
    222c:	82 2f       	mov	r24, r18
    222e:	76 2f       	mov	r23, r22
    2230:	6a 2f       	mov	r22, r26
    2232:	11 24       	eor	r1, r1
    2234:	9f 57       	subi	r25, 0x7F	; 127
    2236:	50 40       	sbci	r21, 0x00	; 0
    2238:	8a f0       	brmi	.+34     	; 0x225c <__mulsf3_pse+0x84>
    223a:	e1 f0       	breq	.+56     	; 0x2274 <__mulsf3_pse+0x9c>
    223c:	88 23       	and	r24, r24
    223e:	4a f0       	brmi	.+18     	; 0x2252 <__mulsf3_pse+0x7a>
    2240:	ee 0f       	add	r30, r30
    2242:	ff 1f       	adc	r31, r31
    2244:	bb 1f       	adc	r27, r27
    2246:	66 1f       	adc	r22, r22
    2248:	77 1f       	adc	r23, r23
    224a:	88 1f       	adc	r24, r24
    224c:	91 50       	subi	r25, 0x01	; 1
    224e:	50 40       	sbci	r21, 0x00	; 0
    2250:	a9 f7       	brne	.-22     	; 0x223c <__mulsf3_pse+0x64>
    2252:	9e 3f       	cpi	r25, 0xFE	; 254
    2254:	51 05       	cpc	r21, r1
    2256:	70 f0       	brcs	.+28     	; 0x2274 <__mulsf3_pse+0x9c>
    2258:	60 cf       	rjmp	.-320    	; 0x211a <__fp_inf>
    225a:	aa cf       	rjmp	.-172    	; 0x21b0 <__fp_szero>
    225c:	5f 3f       	cpi	r21, 0xFF	; 255
    225e:	ec f3       	brlt	.-6      	; 0x225a <__mulsf3_pse+0x82>
    2260:	98 3e       	cpi	r25, 0xE8	; 232
    2262:	dc f3       	brlt	.-10     	; 0x225a <__mulsf3_pse+0x82>
    2264:	86 95       	lsr	r24
    2266:	77 95       	ror	r23
    2268:	67 95       	ror	r22
    226a:	b7 95       	ror	r27
    226c:	f7 95       	ror	r31
    226e:	e7 95       	ror	r30
    2270:	9f 5f       	subi	r25, 0xFF	; 255
    2272:	c1 f7       	brne	.-16     	; 0x2264 <__mulsf3_pse+0x8c>
    2274:	fe 2b       	or	r31, r30
    2276:	88 0f       	add	r24, r24
    2278:	91 1d       	adc	r25, r1
    227a:	96 95       	lsr	r25
    227c:	87 95       	ror	r24
    227e:	97 f9       	bld	r25, 7
    2280:	08 95       	ret

00002282 <vfprintf>:
    2282:	2f 92       	push	r2
    2284:	3f 92       	push	r3
    2286:	4f 92       	push	r4
    2288:	5f 92       	push	r5
    228a:	6f 92       	push	r6
    228c:	7f 92       	push	r7
    228e:	8f 92       	push	r8
    2290:	9f 92       	push	r9
    2292:	af 92       	push	r10
    2294:	bf 92       	push	r11
    2296:	cf 92       	push	r12
    2298:	df 92       	push	r13
    229a:	ef 92       	push	r14
    229c:	ff 92       	push	r15
    229e:	0f 93       	push	r16
    22a0:	1f 93       	push	r17
    22a2:	df 93       	push	r29
    22a4:	cf 93       	push	r28
    22a6:	cd b7       	in	r28, 0x3d	; 61
    22a8:	de b7       	in	r29, 0x3e	; 62
    22aa:	61 97       	sbiw	r28, 0x11	; 17
    22ac:	0f b6       	in	r0, 0x3f	; 63
    22ae:	f8 94       	cli
    22b0:	de bf       	out	0x3e, r29	; 62
    22b2:	0f be       	out	0x3f, r0	; 63
    22b4:	cd bf       	out	0x3d, r28	; 61
    22b6:	3c 01       	movw	r6, r24
    22b8:	7f 87       	std	Y+15, r23	; 0x0f
    22ba:	6e 87       	std	Y+14, r22	; 0x0e
    22bc:	6a 01       	movw	r12, r20
    22be:	fc 01       	movw	r30, r24
    22c0:	17 82       	std	Z+7, r1	; 0x07
    22c2:	16 82       	std	Z+6, r1	; 0x06
    22c4:	83 81       	ldd	r24, Z+3	; 0x03
    22c6:	81 fd       	sbrc	r24, 1
    22c8:	03 c0       	rjmp	.+6      	; 0x22d0 <vfprintf+0x4e>
    22ca:	6f ef       	ldi	r22, 0xFF	; 255
    22cc:	7f ef       	ldi	r23, 0xFF	; 255
    22ce:	71 c3       	rjmp	.+1762   	; 0x29b2 <vfprintf+0x730>
    22d0:	9e 01       	movw	r18, r28
    22d2:	2f 5f       	subi	r18, 0xFF	; 255
    22d4:	3f 4f       	sbci	r19, 0xFF	; 255
    22d6:	39 8b       	std	Y+17, r19	; 0x11
    22d8:	28 8b       	std	Y+16, r18	; 0x10
    22da:	f3 01       	movw	r30, r6
    22dc:	23 81       	ldd	r18, Z+3	; 0x03
    22de:	ee 85       	ldd	r30, Y+14	; 0x0e
    22e0:	ff 85       	ldd	r31, Y+15	; 0x0f
    22e2:	23 fd       	sbrc	r18, 3
    22e4:	85 91       	lpm	r24, Z+
    22e6:	23 ff       	sbrs	r18, 3
    22e8:	81 91       	ld	r24, Z+
    22ea:	ff 87       	std	Y+15, r31	; 0x0f
    22ec:	ee 87       	std	Y+14, r30	; 0x0e
    22ee:	88 23       	and	r24, r24
    22f0:	09 f4       	brne	.+2      	; 0x22f4 <vfprintf+0x72>
    22f2:	5c c3       	rjmp	.+1720   	; 0x29ac <vfprintf+0x72a>
    22f4:	85 32       	cpi	r24, 0x25	; 37
    22f6:	51 f4       	brne	.+20     	; 0x230c <vfprintf+0x8a>
    22f8:	ee 85       	ldd	r30, Y+14	; 0x0e
    22fa:	ff 85       	ldd	r31, Y+15	; 0x0f
    22fc:	23 fd       	sbrc	r18, 3
    22fe:	85 91       	lpm	r24, Z+
    2300:	23 ff       	sbrs	r18, 3
    2302:	81 91       	ld	r24, Z+
    2304:	ff 87       	std	Y+15, r31	; 0x0f
    2306:	ee 87       	std	Y+14, r30	; 0x0e
    2308:	85 32       	cpi	r24, 0x25	; 37
    230a:	29 f4       	brne	.+10     	; 0x2316 <vfprintf+0x94>
    230c:	90 e0       	ldi	r25, 0x00	; 0
    230e:	b3 01       	movw	r22, r6
    2310:	0e 94 36 17 	call	0x2e6c	; 0x2e6c <fputc>
    2314:	e2 cf       	rjmp	.-60     	; 0x22da <vfprintf+0x58>
    2316:	98 2f       	mov	r25, r24
    2318:	10 e0       	ldi	r17, 0x00	; 0
    231a:	88 24       	eor	r8, r8
    231c:	99 24       	eor	r9, r9
    231e:	10 32       	cpi	r17, 0x20	; 32
    2320:	b0 f4       	brcc	.+44     	; 0x234e <vfprintf+0xcc>
    2322:	9b 32       	cpi	r25, 0x2B	; 43
    2324:	69 f0       	breq	.+26     	; 0x2340 <vfprintf+0xbe>
    2326:	9c 32       	cpi	r25, 0x2C	; 44
    2328:	28 f4       	brcc	.+10     	; 0x2334 <vfprintf+0xb2>
    232a:	90 32       	cpi	r25, 0x20	; 32
    232c:	51 f0       	breq	.+20     	; 0x2342 <vfprintf+0xc0>
    232e:	93 32       	cpi	r25, 0x23	; 35
    2330:	71 f4       	brne	.+28     	; 0x234e <vfprintf+0xcc>
    2332:	0b c0       	rjmp	.+22     	; 0x234a <vfprintf+0xc8>
    2334:	9d 32       	cpi	r25, 0x2D	; 45
    2336:	39 f0       	breq	.+14     	; 0x2346 <vfprintf+0xc4>
    2338:	90 33       	cpi	r25, 0x30	; 48
    233a:	49 f4       	brne	.+18     	; 0x234e <vfprintf+0xcc>
    233c:	11 60       	ori	r17, 0x01	; 1
    233e:	28 c0       	rjmp	.+80     	; 0x2390 <vfprintf+0x10e>
    2340:	12 60       	ori	r17, 0x02	; 2
    2342:	14 60       	ori	r17, 0x04	; 4
    2344:	25 c0       	rjmp	.+74     	; 0x2390 <vfprintf+0x10e>
    2346:	18 60       	ori	r17, 0x08	; 8
    2348:	23 c0       	rjmp	.+70     	; 0x2390 <vfprintf+0x10e>
    234a:	10 61       	ori	r17, 0x10	; 16
    234c:	21 c0       	rjmp	.+66     	; 0x2390 <vfprintf+0x10e>
    234e:	17 fd       	sbrc	r17, 7
    2350:	2a c0       	rjmp	.+84     	; 0x23a6 <vfprintf+0x124>
    2352:	89 2f       	mov	r24, r25
    2354:	80 53       	subi	r24, 0x30	; 48
    2356:	8a 30       	cpi	r24, 0x0A	; 10
    2358:	78 f4       	brcc	.+30     	; 0x2378 <vfprintf+0xf6>
    235a:	16 ff       	sbrs	r17, 6
    235c:	06 c0       	rjmp	.+12     	; 0x236a <vfprintf+0xe8>
    235e:	fa e0       	ldi	r31, 0x0A	; 10
    2360:	9f 9e       	mul	r9, r31
    2362:	90 2c       	mov	r9, r0
    2364:	11 24       	eor	r1, r1
    2366:	98 0e       	add	r9, r24
    2368:	13 c0       	rjmp	.+38     	; 0x2390 <vfprintf+0x10e>
    236a:	3a e0       	ldi	r19, 0x0A	; 10
    236c:	83 9e       	mul	r8, r19
    236e:	80 2c       	mov	r8, r0
    2370:	11 24       	eor	r1, r1
    2372:	88 0e       	add	r8, r24
    2374:	10 62       	ori	r17, 0x20	; 32
    2376:	0c c0       	rjmp	.+24     	; 0x2390 <vfprintf+0x10e>
    2378:	9e 32       	cpi	r25, 0x2E	; 46
    237a:	21 f4       	brne	.+8      	; 0x2384 <vfprintf+0x102>
    237c:	16 fd       	sbrc	r17, 6
    237e:	16 c3       	rjmp	.+1580   	; 0x29ac <vfprintf+0x72a>
    2380:	10 64       	ori	r17, 0x40	; 64
    2382:	06 c0       	rjmp	.+12     	; 0x2390 <vfprintf+0x10e>
    2384:	9c 36       	cpi	r25, 0x6C	; 108
    2386:	11 f4       	brne	.+4      	; 0x238c <vfprintf+0x10a>
    2388:	10 68       	ori	r17, 0x80	; 128
    238a:	02 c0       	rjmp	.+4      	; 0x2390 <vfprintf+0x10e>
    238c:	98 36       	cpi	r25, 0x68	; 104
    238e:	59 f4       	brne	.+22     	; 0x23a6 <vfprintf+0x124>
    2390:	ee 85       	ldd	r30, Y+14	; 0x0e
    2392:	ff 85       	ldd	r31, Y+15	; 0x0f
    2394:	23 fd       	sbrc	r18, 3
    2396:	95 91       	lpm	r25, Z+
    2398:	23 ff       	sbrs	r18, 3
    239a:	91 91       	ld	r25, Z+
    239c:	ff 87       	std	Y+15, r31	; 0x0f
    239e:	ee 87       	std	Y+14, r30	; 0x0e
    23a0:	99 23       	and	r25, r25
    23a2:	09 f0       	breq	.+2      	; 0x23a6 <vfprintf+0x124>
    23a4:	bc cf       	rjmp	.-136    	; 0x231e <vfprintf+0x9c>
    23a6:	89 2f       	mov	r24, r25
    23a8:	85 54       	subi	r24, 0x45	; 69
    23aa:	83 30       	cpi	r24, 0x03	; 3
    23ac:	20 f4       	brcc	.+8      	; 0x23b6 <vfprintf+0x134>
    23ae:	81 2f       	mov	r24, r17
    23b0:	80 61       	ori	r24, 0x10	; 16
    23b2:	90 5e       	subi	r25, 0xE0	; 224
    23b4:	07 c0       	rjmp	.+14     	; 0x23c4 <vfprintf+0x142>
    23b6:	89 2f       	mov	r24, r25
    23b8:	85 56       	subi	r24, 0x65	; 101
    23ba:	83 30       	cpi	r24, 0x03	; 3
    23bc:	08 f0       	brcs	.+2      	; 0x23c0 <vfprintf+0x13e>
    23be:	a1 c1       	rjmp	.+834    	; 0x2702 <vfprintf+0x480>
    23c0:	81 2f       	mov	r24, r17
    23c2:	8f 7e       	andi	r24, 0xEF	; 239
    23c4:	86 fd       	sbrc	r24, 6
    23c6:	02 c0       	rjmp	.+4      	; 0x23cc <vfprintf+0x14a>
    23c8:	76 e0       	ldi	r23, 0x06	; 6
    23ca:	97 2e       	mov	r9, r23
    23cc:	6f e3       	ldi	r22, 0x3F	; 63
    23ce:	f6 2e       	mov	r15, r22
    23d0:	f8 22       	and	r15, r24
    23d2:	95 36       	cpi	r25, 0x65	; 101
    23d4:	19 f4       	brne	.+6      	; 0x23dc <vfprintf+0x15a>
    23d6:	f0 e4       	ldi	r31, 0x40	; 64
    23d8:	ff 2a       	or	r15, r31
    23da:	07 c0       	rjmp	.+14     	; 0x23ea <vfprintf+0x168>
    23dc:	96 36       	cpi	r25, 0x66	; 102
    23de:	19 f4       	brne	.+6      	; 0x23e6 <vfprintf+0x164>
    23e0:	20 e8       	ldi	r18, 0x80	; 128
    23e2:	f2 2a       	or	r15, r18
    23e4:	02 c0       	rjmp	.+4      	; 0x23ea <vfprintf+0x168>
    23e6:	91 10       	cpse	r9, r1
    23e8:	9a 94       	dec	r9
    23ea:	f7 fe       	sbrs	r15, 7
    23ec:	0b c0       	rjmp	.+22     	; 0x2404 <vfprintf+0x182>
    23ee:	3b e3       	ldi	r19, 0x3B	; 59
    23f0:	39 15       	cp	r19, r9
    23f2:	20 f4       	brcc	.+8      	; 0x23fc <vfprintf+0x17a>
    23f4:	27 e0       	ldi	r18, 0x07	; 7
    23f6:	5c e3       	ldi	r21, 0x3C	; 60
    23f8:	b5 2e       	mov	r11, r21
    23fa:	0e c0       	rjmp	.+28     	; 0x2418 <vfprintf+0x196>
    23fc:	b9 2c       	mov	r11, r9
    23fe:	b3 94       	inc	r11
    2400:	27 e0       	ldi	r18, 0x07	; 7
    2402:	0a c0       	rjmp	.+20     	; 0x2418 <vfprintf+0x196>
    2404:	47 e0       	ldi	r20, 0x07	; 7
    2406:	49 15       	cp	r20, r9
    2408:	28 f4       	brcc	.+10     	; 0x2414 <vfprintf+0x192>
    240a:	27 e0       	ldi	r18, 0x07	; 7
    240c:	bb 24       	eor	r11, r11
    240e:	47 e0       	ldi	r20, 0x07	; 7
    2410:	94 2e       	mov	r9, r20
    2412:	02 c0       	rjmp	.+4      	; 0x2418 <vfprintf+0x196>
    2414:	29 2d       	mov	r18, r9
    2416:	bb 24       	eor	r11, r11
    2418:	c6 01       	movw	r24, r12
    241a:	04 96       	adiw	r24, 0x04	; 4
    241c:	9d 87       	std	Y+13, r25	; 0x0d
    241e:	8c 87       	std	Y+12, r24	; 0x0c
    2420:	f6 01       	movw	r30, r12
    2422:	60 81       	ld	r22, Z
    2424:	71 81       	ldd	r23, Z+1	; 0x01
    2426:	82 81       	ldd	r24, Z+2	; 0x02
    2428:	93 81       	ldd	r25, Z+3	; 0x03
    242a:	ae 01       	movw	r20, r28
    242c:	4f 5f       	subi	r20, 0xFF	; 255
    242e:	5f 4f       	sbci	r21, 0xFF	; 255
    2430:	0b 2d       	mov	r16, r11
    2432:	0e 94 41 16 	call	0x2c82	; 0x2c82 <__ftoa_engine>
    2436:	6c 01       	movw	r12, r24
    2438:	09 81       	ldd	r16, Y+1	; 0x01
    243a:	20 2e       	mov	r2, r16
    243c:	33 24       	eor	r3, r3
    243e:	00 ff       	sbrs	r16, 0
    2440:	04 c0       	rjmp	.+8      	; 0x244a <vfprintf+0x1c8>
    2442:	03 fd       	sbrc	r16, 3
    2444:	02 c0       	rjmp	.+4      	; 0x244a <vfprintf+0x1c8>
    2446:	1d e2       	ldi	r17, 0x2D	; 45
    2448:	09 c0       	rjmp	.+18     	; 0x245c <vfprintf+0x1da>
    244a:	f1 fe       	sbrs	r15, 1
    244c:	02 c0       	rjmp	.+4      	; 0x2452 <vfprintf+0x1d0>
    244e:	1b e2       	ldi	r17, 0x2B	; 43
    2450:	05 c0       	rjmp	.+10     	; 0x245c <vfprintf+0x1da>
    2452:	f2 fc       	sbrc	r15, 2
    2454:	02 c0       	rjmp	.+4      	; 0x245a <vfprintf+0x1d8>
    2456:	10 e0       	ldi	r17, 0x00	; 0
    2458:	01 c0       	rjmp	.+2      	; 0x245c <vfprintf+0x1da>
    245a:	10 e2       	ldi	r17, 0x20	; 32
    245c:	c1 01       	movw	r24, r2
    245e:	8c 70       	andi	r24, 0x0C	; 12
    2460:	90 70       	andi	r25, 0x00	; 0
    2462:	89 2b       	or	r24, r25
    2464:	b9 f1       	breq	.+110    	; 0x24d4 <vfprintf+0x252>
    2466:	11 23       	and	r17, r17
    2468:	11 f4       	brne	.+4      	; 0x246e <vfprintf+0x1ec>
    246a:	83 e0       	ldi	r24, 0x03	; 3
    246c:	01 c0       	rjmp	.+2      	; 0x2470 <vfprintf+0x1ee>
    246e:	84 e0       	ldi	r24, 0x04	; 4
    2470:	88 15       	cp	r24, r8
    2472:	10 f0       	brcs	.+4      	; 0x2478 <vfprintf+0x1f6>
    2474:	88 24       	eor	r8, r8
    2476:	0a c0       	rjmp	.+20     	; 0x248c <vfprintf+0x20a>
    2478:	88 1a       	sub	r8, r24
    247a:	f3 fc       	sbrc	r15, 3
    247c:	07 c0       	rjmp	.+14     	; 0x248c <vfprintf+0x20a>
    247e:	80 e2       	ldi	r24, 0x20	; 32
    2480:	90 e0       	ldi	r25, 0x00	; 0
    2482:	b3 01       	movw	r22, r6
    2484:	0e 94 36 17 	call	0x2e6c	; 0x2e6c <fputc>
    2488:	8a 94       	dec	r8
    248a:	c9 f7       	brne	.-14     	; 0x247e <vfprintf+0x1fc>
    248c:	11 23       	and	r17, r17
    248e:	29 f0       	breq	.+10     	; 0x249a <vfprintf+0x218>
    2490:	81 2f       	mov	r24, r17
    2492:	90 e0       	ldi	r25, 0x00	; 0
    2494:	b3 01       	movw	r22, r6
    2496:	0e 94 36 17 	call	0x2e6c	; 0x2e6c <fputc>
    249a:	23 fe       	sbrs	r2, 3
    249c:	03 c0       	rjmp	.+6      	; 0x24a4 <vfprintf+0x222>
    249e:	09 e3       	ldi	r16, 0x39	; 57
    24a0:	12 e0       	ldi	r17, 0x02	; 2
    24a2:	0e c0       	rjmp	.+28     	; 0x24c0 <vfprintf+0x23e>
    24a4:	0d e3       	ldi	r16, 0x3D	; 61
    24a6:	12 e0       	ldi	r17, 0x02	; 2
    24a8:	0b c0       	rjmp	.+22     	; 0x24c0 <vfprintf+0x23e>
    24aa:	e1 14       	cp	r14, r1
    24ac:	f1 04       	cpc	r15, r1
    24ae:	09 f0       	breq	.+2      	; 0x24b2 <vfprintf+0x230>
    24b0:	80 52       	subi	r24, 0x20	; 32
    24b2:	90 e0       	ldi	r25, 0x00	; 0
    24b4:	b3 01       	movw	r22, r6
    24b6:	0e 94 36 17 	call	0x2e6c	; 0x2e6c <fputc>
    24ba:	0f 5f       	subi	r16, 0xFF	; 255
    24bc:	1f 4f       	sbci	r17, 0xFF	; 255
    24be:	05 c0       	rjmp	.+10     	; 0x24ca <vfprintf+0x248>
    24c0:	ef 2c       	mov	r14, r15
    24c2:	ff 24       	eor	r15, r15
    24c4:	f0 e1       	ldi	r31, 0x10	; 16
    24c6:	ef 22       	and	r14, r31
    24c8:	ff 24       	eor	r15, r15
    24ca:	f8 01       	movw	r30, r16
    24cc:	84 91       	lpm	r24, Z+
    24ce:	88 23       	and	r24, r24
    24d0:	61 f7       	brne	.-40     	; 0x24aa <vfprintf+0x228>
    24d2:	14 c1       	rjmp	.+552    	; 0x26fc <vfprintf+0x47a>
    24d4:	f7 fe       	sbrs	r15, 7
    24d6:	12 c0       	rjmp	.+36     	; 0x24fc <vfprintf+0x27a>
    24d8:	bc 0c       	add	r11, r12
    24da:	24 fe       	sbrs	r2, 4
    24dc:	04 c0       	rjmp	.+8      	; 0x24e6 <vfprintf+0x264>
    24de:	8a 81       	ldd	r24, Y+2	; 0x02
    24e0:	81 33       	cpi	r24, 0x31	; 49
    24e2:	09 f4       	brne	.+2      	; 0x24e6 <vfprintf+0x264>
    24e4:	ba 94       	dec	r11
    24e6:	1b 14       	cp	r1, r11
    24e8:	1c f0       	brlt	.+6      	; 0x24f0 <vfprintf+0x26e>
    24ea:	bb 24       	eor	r11, r11
    24ec:	b3 94       	inc	r11
    24ee:	2d c0       	rjmp	.+90     	; 0x254a <vfprintf+0x2c8>
    24f0:	f8 e0       	ldi	r31, 0x08	; 8
    24f2:	fb 15       	cp	r31, r11
    24f4:	50 f5       	brcc	.+84     	; 0x254a <vfprintf+0x2c8>
    24f6:	38 e0       	ldi	r19, 0x08	; 8
    24f8:	b3 2e       	mov	r11, r19
    24fa:	27 c0       	rjmp	.+78     	; 0x254a <vfprintf+0x2c8>
    24fc:	f6 fc       	sbrc	r15, 6
    24fe:	25 c0       	rjmp	.+74     	; 0x254a <vfprintf+0x2c8>
    2500:	89 2d       	mov	r24, r9
    2502:	90 e0       	ldi	r25, 0x00	; 0
    2504:	8c 15       	cp	r24, r12
    2506:	9d 05       	cpc	r25, r13
    2508:	4c f0       	brlt	.+18     	; 0x251c <vfprintf+0x29a>
    250a:	2c ef       	ldi	r18, 0xFC	; 252
    250c:	c2 16       	cp	r12, r18
    250e:	2f ef       	ldi	r18, 0xFF	; 255
    2510:	d2 06       	cpc	r13, r18
    2512:	24 f0       	brlt	.+8      	; 0x251c <vfprintf+0x29a>
    2514:	30 e8       	ldi	r19, 0x80	; 128
    2516:	f3 2a       	or	r15, r19
    2518:	01 c0       	rjmp	.+2      	; 0x251c <vfprintf+0x29a>
    251a:	9a 94       	dec	r9
    251c:	99 20       	and	r9, r9
    251e:	49 f0       	breq	.+18     	; 0x2532 <vfprintf+0x2b0>
    2520:	e2 e0       	ldi	r30, 0x02	; 2
    2522:	f0 e0       	ldi	r31, 0x00	; 0
    2524:	ec 0f       	add	r30, r28
    2526:	fd 1f       	adc	r31, r29
    2528:	e9 0d       	add	r30, r9
    252a:	f1 1d       	adc	r31, r1
    252c:	80 81       	ld	r24, Z
    252e:	80 33       	cpi	r24, 0x30	; 48
    2530:	a1 f3       	breq	.-24     	; 0x251a <vfprintf+0x298>
    2532:	f7 fe       	sbrs	r15, 7
    2534:	0a c0       	rjmp	.+20     	; 0x254a <vfprintf+0x2c8>
    2536:	b9 2c       	mov	r11, r9
    2538:	b3 94       	inc	r11
    253a:	89 2d       	mov	r24, r9
    253c:	90 e0       	ldi	r25, 0x00	; 0
    253e:	c8 16       	cp	r12, r24
    2540:	d9 06       	cpc	r13, r25
    2542:	14 f0       	brlt	.+4      	; 0x2548 <vfprintf+0x2c6>
    2544:	99 24       	eor	r9, r9
    2546:	01 c0       	rjmp	.+2      	; 0x254a <vfprintf+0x2c8>
    2548:	9c 18       	sub	r9, r12
    254a:	f7 fc       	sbrc	r15, 7
    254c:	03 c0       	rjmp	.+6      	; 0x2554 <vfprintf+0x2d2>
    254e:	25 e0       	ldi	r18, 0x05	; 5
    2550:	30 e0       	ldi	r19, 0x00	; 0
    2552:	09 c0       	rjmp	.+18     	; 0x2566 <vfprintf+0x2e4>
    2554:	1c 14       	cp	r1, r12
    2556:	1d 04       	cpc	r1, r13
    2558:	1c f0       	brlt	.+6      	; 0x2560 <vfprintf+0x2de>
    255a:	21 e0       	ldi	r18, 0x01	; 1
    255c:	30 e0       	ldi	r19, 0x00	; 0
    255e:	03 c0       	rjmp	.+6      	; 0x2566 <vfprintf+0x2e4>
    2560:	96 01       	movw	r18, r12
    2562:	2f 5f       	subi	r18, 0xFF	; 255
    2564:	3f 4f       	sbci	r19, 0xFF	; 255
    2566:	11 23       	and	r17, r17
    2568:	11 f0       	breq	.+4      	; 0x256e <vfprintf+0x2ec>
    256a:	2f 5f       	subi	r18, 0xFF	; 255
    256c:	3f 4f       	sbci	r19, 0xFF	; 255
    256e:	99 20       	and	r9, r9
    2570:	29 f0       	breq	.+10     	; 0x257c <vfprintf+0x2fa>
    2572:	89 2d       	mov	r24, r9
    2574:	90 e0       	ldi	r25, 0x00	; 0
    2576:	01 96       	adiw	r24, 0x01	; 1
    2578:	28 0f       	add	r18, r24
    257a:	39 1f       	adc	r19, r25
    257c:	88 2d       	mov	r24, r8
    257e:	90 e0       	ldi	r25, 0x00	; 0
    2580:	28 17       	cp	r18, r24
    2582:	39 07       	cpc	r19, r25
    2584:	14 f0       	brlt	.+4      	; 0x258a <vfprintf+0x308>
    2586:	88 24       	eor	r8, r8
    2588:	01 c0       	rjmp	.+2      	; 0x258c <vfprintf+0x30a>
    258a:	82 1a       	sub	r8, r18
    258c:	4f 2c       	mov	r4, r15
    258e:	55 24       	eor	r5, r5
    2590:	c2 01       	movw	r24, r4
    2592:	89 70       	andi	r24, 0x09	; 9
    2594:	90 70       	andi	r25, 0x00	; 0
    2596:	89 2b       	or	r24, r25
    2598:	39 f0       	breq	.+14     	; 0x25a8 <vfprintf+0x326>
    259a:	08 c0       	rjmp	.+16     	; 0x25ac <vfprintf+0x32a>
    259c:	80 e2       	ldi	r24, 0x20	; 32
    259e:	90 e0       	ldi	r25, 0x00	; 0
    25a0:	b3 01       	movw	r22, r6
    25a2:	0e 94 36 17 	call	0x2e6c	; 0x2e6c <fputc>
    25a6:	8a 94       	dec	r8
    25a8:	88 20       	and	r8, r8
    25aa:	c1 f7       	brne	.-16     	; 0x259c <vfprintf+0x31a>
    25ac:	11 23       	and	r17, r17
    25ae:	29 f0       	breq	.+10     	; 0x25ba <vfprintf+0x338>
    25b0:	81 2f       	mov	r24, r17
    25b2:	90 e0       	ldi	r25, 0x00	; 0
    25b4:	b3 01       	movw	r22, r6
    25b6:	0e 94 36 17 	call	0x2e6c	; 0x2e6c <fputc>
    25ba:	43 fe       	sbrs	r4, 3
    25bc:	07 c0       	rjmp	.+14     	; 0x25cc <vfprintf+0x34a>
    25be:	08 c0       	rjmp	.+16     	; 0x25d0 <vfprintf+0x34e>
    25c0:	80 e3       	ldi	r24, 0x30	; 48
    25c2:	90 e0       	ldi	r25, 0x00	; 0
    25c4:	b3 01       	movw	r22, r6
    25c6:	0e 94 36 17 	call	0x2e6c	; 0x2e6c <fputc>
    25ca:	8a 94       	dec	r8
    25cc:	88 20       	and	r8, r8
    25ce:	c1 f7       	brne	.-16     	; 0x25c0 <vfprintf+0x33e>
    25d0:	f7 fe       	sbrs	r15, 7
    25d2:	46 c0       	rjmp	.+140    	; 0x2660 <vfprintf+0x3de>
    25d4:	86 01       	movw	r16, r12
    25d6:	d7 fe       	sbrs	r13, 7
    25d8:	02 c0       	rjmp	.+4      	; 0x25de <vfprintf+0x35c>
    25da:	00 e0       	ldi	r16, 0x00	; 0
    25dc:	10 e0       	ldi	r17, 0x00	; 0
    25de:	76 01       	movw	r14, r12
    25e0:	08 94       	sec
    25e2:	e1 1c       	adc	r14, r1
    25e4:	f1 1c       	adc	r15, r1
    25e6:	e0 1a       	sub	r14, r16
    25e8:	f1 0a       	sbc	r15, r17
    25ea:	41 e0       	ldi	r20, 0x01	; 1
    25ec:	50 e0       	ldi	r21, 0x00	; 0
    25ee:	4c 0f       	add	r20, r28
    25f0:	5d 1f       	adc	r21, r29
    25f2:	e4 0e       	add	r14, r20
    25f4:	f5 1e       	adc	r15, r21
    25f6:	26 01       	movw	r4, r12
    25f8:	4b 18       	sub	r4, r11
    25fa:	51 08       	sbc	r5, r1
    25fc:	89 2d       	mov	r24, r9
    25fe:	90 e0       	ldi	r25, 0x00	; 0
    2600:	aa 24       	eor	r10, r10
    2602:	bb 24       	eor	r11, r11
    2604:	a8 1a       	sub	r10, r24
    2606:	b9 0a       	sbc	r11, r25
    2608:	5f ef       	ldi	r21, 0xFF	; 255
    260a:	0f 3f       	cpi	r16, 0xFF	; 255
    260c:	15 07       	cpc	r17, r21
    260e:	29 f4       	brne	.+10     	; 0x261a <vfprintf+0x398>
    2610:	8e e2       	ldi	r24, 0x2E	; 46
    2612:	90 e0       	ldi	r25, 0x00	; 0
    2614:	b3 01       	movw	r22, r6
    2616:	0e 94 36 17 	call	0x2e6c	; 0x2e6c <fputc>
    261a:	c0 16       	cp	r12, r16
    261c:	d1 06       	cpc	r13, r17
    261e:	34 f0       	brlt	.+12     	; 0x262c <vfprintf+0x3aa>
    2620:	40 16       	cp	r4, r16
    2622:	51 06       	cpc	r5, r17
    2624:	1c f4       	brge	.+6      	; 0x262c <vfprintf+0x3aa>
    2626:	f7 01       	movw	r30, r14
    2628:	80 81       	ld	r24, Z
    262a:	01 c0       	rjmp	.+2      	; 0x262e <vfprintf+0x3ac>
    262c:	80 e3       	ldi	r24, 0x30	; 48
    262e:	01 50       	subi	r16, 0x01	; 1
    2630:	10 40       	sbci	r17, 0x00	; 0
    2632:	08 94       	sec
    2634:	e1 1c       	adc	r14, r1
    2636:	f1 1c       	adc	r15, r1
    2638:	0a 15       	cp	r16, r10
    263a:	1b 05       	cpc	r17, r11
    263c:	2c f0       	brlt	.+10     	; 0x2648 <vfprintf+0x3c6>
    263e:	90 e0       	ldi	r25, 0x00	; 0
    2640:	b3 01       	movw	r22, r6
    2642:	0e 94 36 17 	call	0x2e6c	; 0x2e6c <fputc>
    2646:	e0 cf       	rjmp	.-64     	; 0x2608 <vfprintf+0x386>
    2648:	0c 15       	cp	r16, r12
    264a:	1d 05       	cpc	r17, r13
    264c:	39 f4       	brne	.+14     	; 0x265c <vfprintf+0x3da>
    264e:	9a 81       	ldd	r25, Y+2	; 0x02
    2650:	96 33       	cpi	r25, 0x36	; 54
    2652:	18 f4       	brcc	.+6      	; 0x265a <vfprintf+0x3d8>
    2654:	95 33       	cpi	r25, 0x35	; 53
    2656:	11 f4       	brne	.+4      	; 0x265c <vfprintf+0x3da>
    2658:	24 fe       	sbrs	r2, 4
    265a:	81 e3       	ldi	r24, 0x31	; 49
    265c:	90 e0       	ldi	r25, 0x00	; 0
    265e:	4b c0       	rjmp	.+150    	; 0x26f6 <vfprintf+0x474>
    2660:	8a 81       	ldd	r24, Y+2	; 0x02
    2662:	81 33       	cpi	r24, 0x31	; 49
    2664:	09 f0       	breq	.+2      	; 0x2668 <vfprintf+0x3e6>
    2666:	0f 7e       	andi	r16, 0xEF	; 239
    2668:	90 e0       	ldi	r25, 0x00	; 0
    266a:	b3 01       	movw	r22, r6
    266c:	0e 94 36 17 	call	0x2e6c	; 0x2e6c <fputc>
    2670:	99 20       	and	r9, r9
    2672:	a1 f0       	breq	.+40     	; 0x269c <vfprintf+0x41a>
    2674:	8e e2       	ldi	r24, 0x2E	; 46
    2676:	90 e0       	ldi	r25, 0x00	; 0
    2678:	b3 01       	movw	r22, r6
    267a:	0e 94 36 17 	call	0x2e6c	; 0x2e6c <fputc>
    267e:	12 e0       	ldi	r17, 0x02	; 2
    2680:	e1 e0       	ldi	r30, 0x01	; 1
    2682:	f0 e0       	ldi	r31, 0x00	; 0
    2684:	ec 0f       	add	r30, r28
    2686:	fd 1f       	adc	r31, r29
    2688:	e1 0f       	add	r30, r17
    268a:	f1 1d       	adc	r31, r1
    268c:	1f 5f       	subi	r17, 0xFF	; 255
    268e:	80 81       	ld	r24, Z
    2690:	90 e0       	ldi	r25, 0x00	; 0
    2692:	b3 01       	movw	r22, r6
    2694:	0e 94 36 17 	call	0x2e6c	; 0x2e6c <fputc>
    2698:	9a 94       	dec	r9
    269a:	91 f7       	brne	.-28     	; 0x2680 <vfprintf+0x3fe>
    269c:	44 fc       	sbrc	r4, 4
    269e:	03 c0       	rjmp	.+6      	; 0x26a6 <vfprintf+0x424>
    26a0:	85 e6       	ldi	r24, 0x65	; 101
    26a2:	90 e0       	ldi	r25, 0x00	; 0
    26a4:	02 c0       	rjmp	.+4      	; 0x26aa <vfprintf+0x428>
    26a6:	85 e4       	ldi	r24, 0x45	; 69
    26a8:	90 e0       	ldi	r25, 0x00	; 0
    26aa:	b3 01       	movw	r22, r6
    26ac:	0e 94 36 17 	call	0x2e6c	; 0x2e6c <fputc>
    26b0:	d7 fc       	sbrc	r13, 7
    26b2:	05 c0       	rjmp	.+10     	; 0x26be <vfprintf+0x43c>
    26b4:	c1 14       	cp	r12, r1
    26b6:	d1 04       	cpc	r13, r1
    26b8:	41 f4       	brne	.+16     	; 0x26ca <vfprintf+0x448>
    26ba:	04 ff       	sbrs	r16, 4
    26bc:	06 c0       	rjmp	.+12     	; 0x26ca <vfprintf+0x448>
    26be:	d0 94       	com	r13
    26c0:	c1 94       	neg	r12
    26c2:	d1 08       	sbc	r13, r1
    26c4:	d3 94       	inc	r13
    26c6:	8d e2       	ldi	r24, 0x2D	; 45
    26c8:	01 c0       	rjmp	.+2      	; 0x26cc <vfprintf+0x44a>
    26ca:	8b e2       	ldi	r24, 0x2B	; 43
    26cc:	90 e0       	ldi	r25, 0x00	; 0
    26ce:	b3 01       	movw	r22, r6
    26d0:	0e 94 36 17 	call	0x2e6c	; 0x2e6c <fputc>
    26d4:	80 e3       	ldi	r24, 0x30	; 48
    26d6:	05 c0       	rjmp	.+10     	; 0x26e2 <vfprintf+0x460>
    26d8:	8f 5f       	subi	r24, 0xFF	; 255
    26da:	26 ef       	ldi	r18, 0xF6	; 246
    26dc:	3f ef       	ldi	r19, 0xFF	; 255
    26de:	c2 0e       	add	r12, r18
    26e0:	d3 1e       	adc	r13, r19
    26e2:	3a e0       	ldi	r19, 0x0A	; 10
    26e4:	c3 16       	cp	r12, r19
    26e6:	d1 04       	cpc	r13, r1
    26e8:	bc f7       	brge	.-18     	; 0x26d8 <vfprintf+0x456>
    26ea:	90 e0       	ldi	r25, 0x00	; 0
    26ec:	b3 01       	movw	r22, r6
    26ee:	0e 94 36 17 	call	0x2e6c	; 0x2e6c <fputc>
    26f2:	c6 01       	movw	r24, r12
    26f4:	c0 96       	adiw	r24, 0x30	; 48
    26f6:	b3 01       	movw	r22, r6
    26f8:	0e 94 36 17 	call	0x2e6c	; 0x2e6c <fputc>
    26fc:	cc 84       	ldd	r12, Y+12	; 0x0c
    26fe:	dd 84       	ldd	r13, Y+13	; 0x0d
    2700:	52 c1       	rjmp	.+676    	; 0x29a6 <vfprintf+0x724>
    2702:	93 36       	cpi	r25, 0x63	; 99
    2704:	31 f0       	breq	.+12     	; 0x2712 <vfprintf+0x490>
    2706:	93 37       	cpi	r25, 0x73	; 115
    2708:	99 f0       	breq	.+38     	; 0x2730 <vfprintf+0x4ae>
    270a:	93 35       	cpi	r25, 0x53	; 83
    270c:	09 f0       	breq	.+2      	; 0x2710 <vfprintf+0x48e>
    270e:	59 c0       	rjmp	.+178    	; 0x27c2 <vfprintf+0x540>
    2710:	23 c0       	rjmp	.+70     	; 0x2758 <vfprintf+0x4d6>
    2712:	f6 01       	movw	r30, r12
    2714:	80 81       	ld	r24, Z
    2716:	89 83       	std	Y+1, r24	; 0x01
    2718:	5e 01       	movw	r10, r28
    271a:	08 94       	sec
    271c:	a1 1c       	adc	r10, r1
    271e:	b1 1c       	adc	r11, r1
    2720:	22 e0       	ldi	r18, 0x02	; 2
    2722:	30 e0       	ldi	r19, 0x00	; 0
    2724:	c2 0e       	add	r12, r18
    2726:	d3 1e       	adc	r13, r19
    2728:	21 e0       	ldi	r18, 0x01	; 1
    272a:	e2 2e       	mov	r14, r18
    272c:	f1 2c       	mov	r15, r1
    272e:	12 c0       	rjmp	.+36     	; 0x2754 <vfprintf+0x4d2>
    2730:	f6 01       	movw	r30, r12
    2732:	a0 80       	ld	r10, Z
    2734:	b1 80       	ldd	r11, Z+1	; 0x01
    2736:	16 fd       	sbrc	r17, 6
    2738:	03 c0       	rjmp	.+6      	; 0x2740 <vfprintf+0x4be>
    273a:	6f ef       	ldi	r22, 0xFF	; 255
    273c:	7f ef       	ldi	r23, 0xFF	; 255
    273e:	02 c0       	rjmp	.+4      	; 0x2744 <vfprintf+0x4c2>
    2740:	69 2d       	mov	r22, r9
    2742:	70 e0       	ldi	r23, 0x00	; 0
    2744:	22 e0       	ldi	r18, 0x02	; 2
    2746:	30 e0       	ldi	r19, 0x00	; 0
    2748:	c2 0e       	add	r12, r18
    274a:	d3 1e       	adc	r13, r19
    274c:	c5 01       	movw	r24, r10
    274e:	0e 94 2b 17 	call	0x2e56	; 0x2e56 <strnlen>
    2752:	7c 01       	movw	r14, r24
    2754:	1f 77       	andi	r17, 0x7F	; 127
    2756:	13 c0       	rjmp	.+38     	; 0x277e <vfprintf+0x4fc>
    2758:	f6 01       	movw	r30, r12
    275a:	a0 80       	ld	r10, Z
    275c:	b1 80       	ldd	r11, Z+1	; 0x01
    275e:	16 fd       	sbrc	r17, 6
    2760:	03 c0       	rjmp	.+6      	; 0x2768 <vfprintf+0x4e6>
    2762:	6f ef       	ldi	r22, 0xFF	; 255
    2764:	7f ef       	ldi	r23, 0xFF	; 255
    2766:	02 c0       	rjmp	.+4      	; 0x276c <vfprintf+0x4ea>
    2768:	69 2d       	mov	r22, r9
    276a:	70 e0       	ldi	r23, 0x00	; 0
    276c:	22 e0       	ldi	r18, 0x02	; 2
    276e:	30 e0       	ldi	r19, 0x00	; 0
    2770:	c2 0e       	add	r12, r18
    2772:	d3 1e       	adc	r13, r19
    2774:	c5 01       	movw	r24, r10
    2776:	0e 94 19 17 	call	0x2e32	; 0x2e32 <strnlen_P>
    277a:	7c 01       	movw	r14, r24
    277c:	10 68       	ori	r17, 0x80	; 128
    277e:	13 ff       	sbrs	r17, 3
    2780:	07 c0       	rjmp	.+14     	; 0x2790 <vfprintf+0x50e>
    2782:	1b c0       	rjmp	.+54     	; 0x27ba <vfprintf+0x538>
    2784:	80 e2       	ldi	r24, 0x20	; 32
    2786:	90 e0       	ldi	r25, 0x00	; 0
    2788:	b3 01       	movw	r22, r6
    278a:	0e 94 36 17 	call	0x2e6c	; 0x2e6c <fputc>
    278e:	8a 94       	dec	r8
    2790:	88 2d       	mov	r24, r8
    2792:	90 e0       	ldi	r25, 0x00	; 0
    2794:	e8 16       	cp	r14, r24
    2796:	f9 06       	cpc	r15, r25
    2798:	a8 f3       	brcs	.-22     	; 0x2784 <vfprintf+0x502>
    279a:	0f c0       	rjmp	.+30     	; 0x27ba <vfprintf+0x538>
    279c:	f5 01       	movw	r30, r10
    279e:	17 fd       	sbrc	r17, 7
    27a0:	85 91       	lpm	r24, Z+
    27a2:	17 ff       	sbrs	r17, 7
    27a4:	81 91       	ld	r24, Z+
    27a6:	5f 01       	movw	r10, r30
    27a8:	90 e0       	ldi	r25, 0x00	; 0
    27aa:	b3 01       	movw	r22, r6
    27ac:	0e 94 36 17 	call	0x2e6c	; 0x2e6c <fputc>
    27b0:	81 10       	cpse	r8, r1
    27b2:	8a 94       	dec	r8
    27b4:	08 94       	sec
    27b6:	e1 08       	sbc	r14, r1
    27b8:	f1 08       	sbc	r15, r1
    27ba:	e1 14       	cp	r14, r1
    27bc:	f1 04       	cpc	r15, r1
    27be:	71 f7       	brne	.-36     	; 0x279c <vfprintf+0x51a>
    27c0:	f2 c0       	rjmp	.+484    	; 0x29a6 <vfprintf+0x724>
    27c2:	94 36       	cpi	r25, 0x64	; 100
    27c4:	11 f0       	breq	.+4      	; 0x27ca <vfprintf+0x548>
    27c6:	99 36       	cpi	r25, 0x69	; 105
    27c8:	89 f5       	brne	.+98     	; 0x282c <vfprintf+0x5aa>
    27ca:	17 ff       	sbrs	r17, 7
    27cc:	08 c0       	rjmp	.+16     	; 0x27de <vfprintf+0x55c>
    27ce:	f6 01       	movw	r30, r12
    27d0:	20 81       	ld	r18, Z
    27d2:	31 81       	ldd	r19, Z+1	; 0x01
    27d4:	42 81       	ldd	r20, Z+2	; 0x02
    27d6:	53 81       	ldd	r21, Z+3	; 0x03
    27d8:	84 e0       	ldi	r24, 0x04	; 4
    27da:	90 e0       	ldi	r25, 0x00	; 0
    27dc:	0a c0       	rjmp	.+20     	; 0x27f2 <vfprintf+0x570>
    27de:	f6 01       	movw	r30, r12
    27e0:	80 81       	ld	r24, Z
    27e2:	91 81       	ldd	r25, Z+1	; 0x01
    27e4:	9c 01       	movw	r18, r24
    27e6:	44 27       	eor	r20, r20
    27e8:	37 fd       	sbrc	r19, 7
    27ea:	40 95       	com	r20
    27ec:	54 2f       	mov	r21, r20
    27ee:	82 e0       	ldi	r24, 0x02	; 2
    27f0:	90 e0       	ldi	r25, 0x00	; 0
    27f2:	c8 0e       	add	r12, r24
    27f4:	d9 1e       	adc	r13, r25
    27f6:	9f e6       	ldi	r25, 0x6F	; 111
    27f8:	f9 2e       	mov	r15, r25
    27fa:	f1 22       	and	r15, r17
    27fc:	57 ff       	sbrs	r21, 7
    27fe:	09 c0       	rjmp	.+18     	; 0x2812 <vfprintf+0x590>
    2800:	50 95       	com	r21
    2802:	40 95       	com	r20
    2804:	30 95       	com	r19
    2806:	21 95       	neg	r18
    2808:	3f 4f       	sbci	r19, 0xFF	; 255
    280a:	4f 4f       	sbci	r20, 0xFF	; 255
    280c:	5f 4f       	sbci	r21, 0xFF	; 255
    280e:	90 e8       	ldi	r25, 0x80	; 128
    2810:	f9 2a       	or	r15, r25
    2812:	ca 01       	movw	r24, r20
    2814:	b9 01       	movw	r22, r18
    2816:	ae 01       	movw	r20, r28
    2818:	4f 5f       	subi	r20, 0xFF	; 255
    281a:	5f 4f       	sbci	r21, 0xFF	; 255
    281c:	2a e0       	ldi	r18, 0x0A	; 10
    281e:	30 e0       	ldi	r19, 0x00	; 0
    2820:	0e 94 93 17 	call	0x2f26	; 0x2f26 <__ultoa_invert>
    2824:	e8 2e       	mov	r14, r24
    2826:	e8 89       	ldd	r30, Y+16	; 0x10
    2828:	ee 1a       	sub	r14, r30
    282a:	41 c0       	rjmp	.+130    	; 0x28ae <vfprintf+0x62c>
    282c:	95 37       	cpi	r25, 0x75	; 117
    282e:	21 f4       	brne	.+8      	; 0x2838 <vfprintf+0x5b6>
    2830:	1f 7e       	andi	r17, 0xEF	; 239
    2832:	2a e0       	ldi	r18, 0x0A	; 10
    2834:	30 e0       	ldi	r19, 0x00	; 0
    2836:	1c c0       	rjmp	.+56     	; 0x2870 <vfprintf+0x5ee>
    2838:	19 7f       	andi	r17, 0xF9	; 249
    283a:	9f 36       	cpi	r25, 0x6F	; 111
    283c:	61 f0       	breq	.+24     	; 0x2856 <vfprintf+0x5d4>
    283e:	90 37       	cpi	r25, 0x70	; 112
    2840:	20 f4       	brcc	.+8      	; 0x284a <vfprintf+0x5c8>
    2842:	98 35       	cpi	r25, 0x58	; 88
    2844:	09 f0       	breq	.+2      	; 0x2848 <vfprintf+0x5c6>
    2846:	b2 c0       	rjmp	.+356    	; 0x29ac <vfprintf+0x72a>
    2848:	0f c0       	rjmp	.+30     	; 0x2868 <vfprintf+0x5e6>
    284a:	90 37       	cpi	r25, 0x70	; 112
    284c:	39 f0       	breq	.+14     	; 0x285c <vfprintf+0x5da>
    284e:	98 37       	cpi	r25, 0x78	; 120
    2850:	09 f0       	breq	.+2      	; 0x2854 <vfprintf+0x5d2>
    2852:	ac c0       	rjmp	.+344    	; 0x29ac <vfprintf+0x72a>
    2854:	04 c0       	rjmp	.+8      	; 0x285e <vfprintf+0x5dc>
    2856:	28 e0       	ldi	r18, 0x08	; 8
    2858:	30 e0       	ldi	r19, 0x00	; 0
    285a:	0a c0       	rjmp	.+20     	; 0x2870 <vfprintf+0x5ee>
    285c:	10 61       	ori	r17, 0x10	; 16
    285e:	14 fd       	sbrc	r17, 4
    2860:	14 60       	ori	r17, 0x04	; 4
    2862:	20 e1       	ldi	r18, 0x10	; 16
    2864:	30 e0       	ldi	r19, 0x00	; 0
    2866:	04 c0       	rjmp	.+8      	; 0x2870 <vfprintf+0x5ee>
    2868:	14 fd       	sbrc	r17, 4
    286a:	16 60       	ori	r17, 0x06	; 6
    286c:	20 e1       	ldi	r18, 0x10	; 16
    286e:	32 e0       	ldi	r19, 0x02	; 2
    2870:	17 ff       	sbrs	r17, 7
    2872:	08 c0       	rjmp	.+16     	; 0x2884 <vfprintf+0x602>
    2874:	f6 01       	movw	r30, r12
    2876:	60 81       	ld	r22, Z
    2878:	71 81       	ldd	r23, Z+1	; 0x01
    287a:	82 81       	ldd	r24, Z+2	; 0x02
    287c:	93 81       	ldd	r25, Z+3	; 0x03
    287e:	44 e0       	ldi	r20, 0x04	; 4
    2880:	50 e0       	ldi	r21, 0x00	; 0
    2882:	08 c0       	rjmp	.+16     	; 0x2894 <vfprintf+0x612>
    2884:	f6 01       	movw	r30, r12
    2886:	80 81       	ld	r24, Z
    2888:	91 81       	ldd	r25, Z+1	; 0x01
    288a:	bc 01       	movw	r22, r24
    288c:	80 e0       	ldi	r24, 0x00	; 0
    288e:	90 e0       	ldi	r25, 0x00	; 0
    2890:	42 e0       	ldi	r20, 0x02	; 2
    2892:	50 e0       	ldi	r21, 0x00	; 0
    2894:	c4 0e       	add	r12, r20
    2896:	d5 1e       	adc	r13, r21
    2898:	ae 01       	movw	r20, r28
    289a:	4f 5f       	subi	r20, 0xFF	; 255
    289c:	5f 4f       	sbci	r21, 0xFF	; 255
    289e:	0e 94 93 17 	call	0x2f26	; 0x2f26 <__ultoa_invert>
    28a2:	e8 2e       	mov	r14, r24
    28a4:	58 89       	ldd	r21, Y+16	; 0x10
    28a6:	e5 1a       	sub	r14, r21
    28a8:	8f e7       	ldi	r24, 0x7F	; 127
    28aa:	f8 2e       	mov	r15, r24
    28ac:	f1 22       	and	r15, r17
    28ae:	f6 fe       	sbrs	r15, 6
    28b0:	0b c0       	rjmp	.+22     	; 0x28c8 <vfprintf+0x646>
    28b2:	8e ef       	ldi	r24, 0xFE	; 254
    28b4:	f8 22       	and	r15, r24
    28b6:	e9 14       	cp	r14, r9
    28b8:	38 f4       	brcc	.+14     	; 0x28c8 <vfprintf+0x646>
    28ba:	f4 fe       	sbrs	r15, 4
    28bc:	07 c0       	rjmp	.+14     	; 0x28cc <vfprintf+0x64a>
    28be:	f2 fc       	sbrc	r15, 2
    28c0:	05 c0       	rjmp	.+10     	; 0x28cc <vfprintf+0x64a>
    28c2:	9f ee       	ldi	r25, 0xEF	; 239
    28c4:	f9 22       	and	r15, r25
    28c6:	02 c0       	rjmp	.+4      	; 0x28cc <vfprintf+0x64a>
    28c8:	1e 2d       	mov	r17, r14
    28ca:	01 c0       	rjmp	.+2      	; 0x28ce <vfprintf+0x64c>
    28cc:	19 2d       	mov	r17, r9
    28ce:	f4 fe       	sbrs	r15, 4
    28d0:	0d c0       	rjmp	.+26     	; 0x28ec <vfprintf+0x66a>
    28d2:	fe 01       	movw	r30, r28
    28d4:	ee 0d       	add	r30, r14
    28d6:	f1 1d       	adc	r31, r1
    28d8:	80 81       	ld	r24, Z
    28da:	80 33       	cpi	r24, 0x30	; 48
    28dc:	19 f4       	brne	.+6      	; 0x28e4 <vfprintf+0x662>
    28de:	e9 ee       	ldi	r30, 0xE9	; 233
    28e0:	fe 22       	and	r15, r30
    28e2:	08 c0       	rjmp	.+16     	; 0x28f4 <vfprintf+0x672>
    28e4:	1f 5f       	subi	r17, 0xFF	; 255
    28e6:	f2 fe       	sbrs	r15, 2
    28e8:	05 c0       	rjmp	.+10     	; 0x28f4 <vfprintf+0x672>
    28ea:	03 c0       	rjmp	.+6      	; 0x28f2 <vfprintf+0x670>
    28ec:	8f 2d       	mov	r24, r15
    28ee:	86 78       	andi	r24, 0x86	; 134
    28f0:	09 f0       	breq	.+2      	; 0x28f4 <vfprintf+0x672>
    28f2:	1f 5f       	subi	r17, 0xFF	; 255
    28f4:	0f 2d       	mov	r16, r15
    28f6:	f3 fc       	sbrc	r15, 3
    28f8:	14 c0       	rjmp	.+40     	; 0x2922 <vfprintf+0x6a0>
    28fa:	f0 fe       	sbrs	r15, 0
    28fc:	0f c0       	rjmp	.+30     	; 0x291c <vfprintf+0x69a>
    28fe:	18 15       	cp	r17, r8
    2900:	10 f0       	brcs	.+4      	; 0x2906 <vfprintf+0x684>
    2902:	9e 2c       	mov	r9, r14
    2904:	0b c0       	rjmp	.+22     	; 0x291c <vfprintf+0x69a>
    2906:	9e 2c       	mov	r9, r14
    2908:	98 0c       	add	r9, r8
    290a:	91 1a       	sub	r9, r17
    290c:	18 2d       	mov	r17, r8
    290e:	06 c0       	rjmp	.+12     	; 0x291c <vfprintf+0x69a>
    2910:	80 e2       	ldi	r24, 0x20	; 32
    2912:	90 e0       	ldi	r25, 0x00	; 0
    2914:	b3 01       	movw	r22, r6
    2916:	0e 94 36 17 	call	0x2e6c	; 0x2e6c <fputc>
    291a:	1f 5f       	subi	r17, 0xFF	; 255
    291c:	18 15       	cp	r17, r8
    291e:	c0 f3       	brcs	.-16     	; 0x2910 <vfprintf+0x68e>
    2920:	04 c0       	rjmp	.+8      	; 0x292a <vfprintf+0x6a8>
    2922:	18 15       	cp	r17, r8
    2924:	10 f4       	brcc	.+4      	; 0x292a <vfprintf+0x6a8>
    2926:	81 1a       	sub	r8, r17
    2928:	01 c0       	rjmp	.+2      	; 0x292c <vfprintf+0x6aa>
    292a:	88 24       	eor	r8, r8
    292c:	04 ff       	sbrs	r16, 4
    292e:	0f c0       	rjmp	.+30     	; 0x294e <vfprintf+0x6cc>
    2930:	80 e3       	ldi	r24, 0x30	; 48
    2932:	90 e0       	ldi	r25, 0x00	; 0
    2934:	b3 01       	movw	r22, r6
    2936:	0e 94 36 17 	call	0x2e6c	; 0x2e6c <fputc>
    293a:	02 ff       	sbrs	r16, 2
    293c:	1d c0       	rjmp	.+58     	; 0x2978 <vfprintf+0x6f6>
    293e:	01 fd       	sbrc	r16, 1
    2940:	03 c0       	rjmp	.+6      	; 0x2948 <vfprintf+0x6c6>
    2942:	88 e7       	ldi	r24, 0x78	; 120
    2944:	90 e0       	ldi	r25, 0x00	; 0
    2946:	0e c0       	rjmp	.+28     	; 0x2964 <vfprintf+0x6e2>
    2948:	88 e5       	ldi	r24, 0x58	; 88
    294a:	90 e0       	ldi	r25, 0x00	; 0
    294c:	0b c0       	rjmp	.+22     	; 0x2964 <vfprintf+0x6e2>
    294e:	80 2f       	mov	r24, r16
    2950:	86 78       	andi	r24, 0x86	; 134
    2952:	91 f0       	breq	.+36     	; 0x2978 <vfprintf+0x6f6>
    2954:	01 ff       	sbrs	r16, 1
    2956:	02 c0       	rjmp	.+4      	; 0x295c <vfprintf+0x6da>
    2958:	8b e2       	ldi	r24, 0x2B	; 43
    295a:	01 c0       	rjmp	.+2      	; 0x295e <vfprintf+0x6dc>
    295c:	80 e2       	ldi	r24, 0x20	; 32
    295e:	f7 fc       	sbrc	r15, 7
    2960:	8d e2       	ldi	r24, 0x2D	; 45
    2962:	90 e0       	ldi	r25, 0x00	; 0
    2964:	b3 01       	movw	r22, r6
    2966:	0e 94 36 17 	call	0x2e6c	; 0x2e6c <fputc>
    296a:	06 c0       	rjmp	.+12     	; 0x2978 <vfprintf+0x6f6>
    296c:	80 e3       	ldi	r24, 0x30	; 48
    296e:	90 e0       	ldi	r25, 0x00	; 0
    2970:	b3 01       	movw	r22, r6
    2972:	0e 94 36 17 	call	0x2e6c	; 0x2e6c <fputc>
    2976:	9a 94       	dec	r9
    2978:	e9 14       	cp	r14, r9
    297a:	c0 f3       	brcs	.-16     	; 0x296c <vfprintf+0x6ea>
    297c:	ea 94       	dec	r14
    297e:	e1 e0       	ldi	r30, 0x01	; 1
    2980:	f0 e0       	ldi	r31, 0x00	; 0
    2982:	ec 0f       	add	r30, r28
    2984:	fd 1f       	adc	r31, r29
    2986:	ee 0d       	add	r30, r14
    2988:	f1 1d       	adc	r31, r1
    298a:	80 81       	ld	r24, Z
    298c:	90 e0       	ldi	r25, 0x00	; 0
    298e:	b3 01       	movw	r22, r6
    2990:	0e 94 36 17 	call	0x2e6c	; 0x2e6c <fputc>
    2994:	ee 20       	and	r14, r14
    2996:	91 f7       	brne	.-28     	; 0x297c <vfprintf+0x6fa>
    2998:	06 c0       	rjmp	.+12     	; 0x29a6 <vfprintf+0x724>
    299a:	80 e2       	ldi	r24, 0x20	; 32
    299c:	90 e0       	ldi	r25, 0x00	; 0
    299e:	b3 01       	movw	r22, r6
    29a0:	0e 94 36 17 	call	0x2e6c	; 0x2e6c <fputc>
    29a4:	8a 94       	dec	r8
    29a6:	88 20       	and	r8, r8
    29a8:	c1 f7       	brne	.-16     	; 0x299a <vfprintf+0x718>
    29aa:	97 cc       	rjmp	.-1746   	; 0x22da <vfprintf+0x58>
    29ac:	f3 01       	movw	r30, r6
    29ae:	66 81       	ldd	r22, Z+6	; 0x06
    29b0:	77 81       	ldd	r23, Z+7	; 0x07
    29b2:	cb 01       	movw	r24, r22
    29b4:	61 96       	adiw	r28, 0x11	; 17
    29b6:	0f b6       	in	r0, 0x3f	; 63
    29b8:	f8 94       	cli
    29ba:	de bf       	out	0x3e, r29	; 62
    29bc:	0f be       	out	0x3f, r0	; 63
    29be:	cd bf       	out	0x3d, r28	; 61
    29c0:	cf 91       	pop	r28
    29c2:	df 91       	pop	r29
    29c4:	1f 91       	pop	r17
    29c6:	0f 91       	pop	r16
    29c8:	ff 90       	pop	r15
    29ca:	ef 90       	pop	r14
    29cc:	df 90       	pop	r13
    29ce:	cf 90       	pop	r12
    29d0:	bf 90       	pop	r11
    29d2:	af 90       	pop	r10
    29d4:	9f 90       	pop	r9
    29d6:	8f 90       	pop	r8
    29d8:	7f 90       	pop	r7
    29da:	6f 90       	pop	r6
    29dc:	5f 90       	pop	r5
    29de:	4f 90       	pop	r4
    29e0:	3f 90       	pop	r3
    29e2:	2f 90       	pop	r2
    29e4:	08 95       	ret

000029e6 <i2c_start_transmission>:
    29e6:	f8 94       	cli
    29e8:	80 91 c6 04 	lds	r24, 0x04C6
    29ec:	88 23       	and	r24, r24
    29ee:	11 f4       	brne	.+4      	; 0x29f4 <i2c_start_transmission+0xe>
    29f0:	81 e1       	ldi	r24, 0x11	; 17
    29f2:	05 c0       	rjmp	.+10     	; 0x29fe <i2c_start_transmission+0x18>
    29f4:	80 91 74 00 	lds	r24, 0x0074
    29f8:	84 ff       	sbrs	r24, 4
    29fa:	05 c0       	rjmp	.+10     	; 0x2a06 <i2c_start_transmission+0x20>
    29fc:	82 e1       	ldi	r24, 0x12	; 18
    29fe:	80 93 c6 04 	sts	0x04C6, r24
    2a02:	80 e0       	ldi	r24, 0x00	; 0
    2a04:	15 c0       	rjmp	.+42     	; 0x2a30 <i2c_start_transmission+0x4a>
    2a06:	80 91 74 00 	lds	r24, 0x0074
    2a0a:	85 ff       	sbrs	r24, 5
    2a0c:	07 c0       	rjmp	.+14     	; 0x2a1c <i2c_start_transmission+0x36>
    2a0e:	10 92 74 00 	sts	0x0074, r1
    2a12:	84 e0       	ldi	r24, 0x04	; 4
    2a14:	80 93 74 00 	sts	0x0074, r24
    2a18:	88 e1       	ldi	r24, 0x18	; 24
    2a1a:	f1 cf       	rjmp	.-30     	; 0x29fe <i2c_start_transmission+0x18>
    2a1c:	10 92 c6 04 	sts	0x04C6, r1
    2a20:	80 91 c9 04 	lds	r24, 0x04C9
    2a24:	80 93 c7 04 	sts	0x04C7, r24
    2a28:	85 ea       	ldi	r24, 0xA5	; 165
    2a2a:	80 93 74 00 	sts	0x0074, r24
    2a2e:	81 e0       	ldi	r24, 0x01	; 1
    2a30:	78 94       	sei
    2a32:	08 95       	ret

00002a34 <i2c_wait_transmission>:
    2a34:	80 e1       	ldi	r24, 0x10	; 16
    2a36:	97 e2       	ldi	r25, 0x27	; 39
    2a38:	35 e0       	ldi	r19, 0x05	; 5
    2a3a:	0d c0       	rjmp	.+26     	; 0x2a56 <i2c_wait_transmission+0x22>
    2a3c:	20 91 74 00 	lds	r18, 0x0074
    2a40:	20 fd       	sbrc	r18, 0
    2a42:	06 c0       	rjmp	.+12     	; 0x2a50 <i2c_wait_transmission+0x1c>
    2a44:	20 91 74 00 	lds	r18, 0x0074
    2a48:	24 fd       	sbrc	r18, 4
    2a4a:	02 c0       	rjmp	.+4      	; 0x2a50 <i2c_wait_transmission+0x1c>
    2a4c:	81 e0       	ldi	r24, 0x01	; 1
    2a4e:	08 95       	ret
    2a50:	23 2f       	mov	r18, r19
    2a52:	2a 95       	dec	r18
    2a54:	f1 f7       	brne	.-4      	; 0x2a52 <i2c_wait_transmission+0x1e>
    2a56:	01 97       	sbiw	r24, 0x01	; 1
    2a58:	2f ef       	ldi	r18, 0xFF	; 255
    2a5a:	8f 3f       	cpi	r24, 0xFF	; 255
    2a5c:	92 07       	cpc	r25, r18
    2a5e:	71 f7       	brne	.-36     	; 0x2a3c <i2c_wait_transmission+0x8>
    2a60:	f8 94       	cli
    2a62:	10 92 74 00 	sts	0x0074, r1
    2a66:	84 e0       	ldi	r24, 0x04	; 4
    2a68:	80 93 74 00 	sts	0x0074, r24
    2a6c:	80 91 c6 04 	lds	r24, 0x04C6
    2a70:	80 31       	cpi	r24, 0x10	; 16
    2a72:	18 f4       	brcc	.+6      	; 0x2a7a <i2c_wait_transmission+0x46>
    2a74:	83 e1       	ldi	r24, 0x13	; 19
    2a76:	80 93 c6 04 	sts	0x04C6, r24
    2a7a:	78 94       	sei
    2a7c:	80 e0       	ldi	r24, 0x00	; 0
    2a7e:	08 95       	ret

00002a80 <i2c_status>:
    2a80:	80 91 c6 04 	lds	r24, 0x04C6
    2a84:	08 95       	ret

00002a86 <i2c_init>:
    2a86:	e4 e7       	ldi	r30, 0x74	; 116
    2a88:	f0 e0       	ldi	r31, 0x00	; 0
    2a8a:	10 82       	st	Z, r1
    2a8c:	88 e4       	ldi	r24, 0x48	; 72
    2a8e:	80 93 70 00 	sts	0x0070, r24
    2a92:	8f ef       	ldi	r24, 0xFF	; 255
    2a94:	80 93 73 00 	sts	0x0073, r24
    2a98:	84 e0       	ldi	r24, 0x04	; 4
    2a9a:	80 83       	st	Z, r24
    2a9c:	81 e0       	ldi	r24, 0x01	; 1
    2a9e:	80 93 c6 04 	sts	0x04C6, r24
    2aa2:	08 95       	ret

00002aa4 <__vector_33>:
    2aa4:	1f 92       	push	r1
    2aa6:	0f 92       	push	r0
    2aa8:	0f b6       	in	r0, 0x3f	; 63
    2aaa:	0f 92       	push	r0
    2aac:	0b b6       	in	r0, 0x3b	; 59
    2aae:	0f 92       	push	r0
    2ab0:	11 24       	eor	r1, r1
    2ab2:	2f 93       	push	r18
    2ab4:	3f 93       	push	r19
    2ab6:	8f 93       	push	r24
    2ab8:	9f 93       	push	r25
    2aba:	ef 93       	push	r30
    2abc:	ff 93       	push	r31
    2abe:	80 91 71 00 	lds	r24, 0x0071
    2ac2:	88 7f       	andi	r24, 0xF8	; 248
    2ac4:	80 93 c8 04 	sts	0x04C8, r24
    2ac8:	88 32       	cpi	r24, 0x28	; 40
    2aca:	51 f1       	breq	.+84     	; 0x2b20 <__vector_33+0x7c>
    2acc:	89 32       	cpi	r24, 0x29	; 41
    2ace:	88 f4       	brcc	.+34     	; 0x2af2 <__vector_33+0x4e>
    2ad0:	80 31       	cpi	r24, 0x10	; 16
    2ad2:	21 f1       	breq	.+72     	; 0x2b1c <__vector_33+0x78>
    2ad4:	81 31       	cpi	r24, 0x11	; 17
    2ad6:	38 f4       	brcc	.+14     	; 0x2ae6 <__vector_33+0x42>
    2ad8:	88 23       	and	r24, r24
    2ada:	09 f4       	brne	.+2      	; 0x2ade <__vector_33+0x3a>
    2adc:	71 c0       	rjmp	.+226    	; 0x2bc0 <__vector_33+0x11c>
    2ade:	88 30       	cpi	r24, 0x08	; 8
    2ae0:	09 f0       	breq	.+2      	; 0x2ae4 <__vector_33+0x40>
    2ae2:	73 c0       	rjmp	.+230    	; 0x2bca <__vector_33+0x126>
    2ae4:	1b c0       	rjmp	.+54     	; 0x2b1c <__vector_33+0x78>
    2ae6:	88 31       	cpi	r24, 0x18	; 24
    2ae8:	d9 f0       	breq	.+54     	; 0x2b20 <__vector_33+0x7c>
    2aea:	80 32       	cpi	r24, 0x20	; 32
    2aec:	09 f0       	breq	.+2      	; 0x2af0 <__vector_33+0x4c>
    2aee:	6d c0       	rjmp	.+218    	; 0x2bca <__vector_33+0x126>
    2af0:	67 c0       	rjmp	.+206    	; 0x2bc0 <__vector_33+0x11c>
    2af2:	80 34       	cpi	r24, 0x40	; 64
    2af4:	09 f4       	brne	.+2      	; 0x2af8 <__vector_33+0x54>
    2af6:	42 c0       	rjmp	.+132    	; 0x2b7c <__vector_33+0xd8>
    2af8:	81 34       	cpi	r24, 0x41	; 65
    2afa:	38 f4       	brcc	.+14     	; 0x2b0a <__vector_33+0x66>
    2afc:	80 33       	cpi	r24, 0x30	; 48
    2afe:	09 f4       	brne	.+2      	; 0x2b02 <__vector_33+0x5e>
    2b00:	5f c0       	rjmp	.+190    	; 0x2bc0 <__vector_33+0x11c>
    2b02:	88 33       	cpi	r24, 0x38	; 56
    2b04:	09 f0       	breq	.+2      	; 0x2b08 <__vector_33+0x64>
    2b06:	61 c0       	rjmp	.+194    	; 0x2bca <__vector_33+0x126>
    2b08:	56 c0       	rjmp	.+172    	; 0x2bb6 <__vector_33+0x112>
    2b0a:	80 35       	cpi	r24, 0x50	; 80
    2b0c:	59 f1       	breq	.+86     	; 0x2b64 <__vector_33+0xc0>
    2b0e:	88 35       	cpi	r24, 0x58	; 88
    2b10:	09 f4       	brne	.+2      	; 0x2b14 <__vector_33+0x70>
    2b12:	42 c0       	rjmp	.+132    	; 0x2b98 <__vector_33+0xf4>
    2b14:	88 34       	cpi	r24, 0x48	; 72
    2b16:	09 f0       	breq	.+2      	; 0x2b1a <__vector_33+0x76>
    2b18:	58 c0       	rjmp	.+176    	; 0x2bca <__vector_33+0x126>
    2b1a:	52 c0       	rjmp	.+164    	; 0x2bc0 <__vector_33+0x11c>
    2b1c:	10 92 ca 04 	sts	0x04CA, r1
    2b20:	90 91 ca 04 	lds	r25, 0x04CA
    2b24:	80 91 c7 04 	lds	r24, 0x04C7
    2b28:	98 17       	cp	r25, r24
    2b2a:	68 f4       	brcc	.+26     	; 0x2b46 <__vector_33+0xa2>
    2b2c:	80 91 ca 04 	lds	r24, 0x04CA
    2b30:	e8 2f       	mov	r30, r24
    2b32:	f0 e0       	ldi	r31, 0x00	; 0
    2b34:	ee 54       	subi	r30, 0x4E	; 78
    2b36:	fb 4f       	sbci	r31, 0xFB	; 251
    2b38:	90 81       	ld	r25, Z
    2b3a:	8f 5f       	subi	r24, 0xFF	; 255
    2b3c:	80 93 ca 04 	sts	0x04CA, r24
    2b40:	90 93 73 00 	sts	0x0073, r25
    2b44:	27 c0       	rjmp	.+78     	; 0x2b94 <__vector_33+0xf0>
    2b46:	80 91 cb 04 	lds	r24, 0x04CB
    2b4a:	88 23       	and	r24, r24
    2b4c:	69 f1       	breq	.+90     	; 0x2ba8 <__vector_33+0x104>
    2b4e:	80 91 cb 04 	lds	r24, 0x04CB
    2b52:	80 93 c7 04 	sts	0x04C7, r24
    2b56:	80 91 b2 04 	lds	r24, 0x04B2
    2b5a:	81 60       	ori	r24, 0x01	; 1
    2b5c:	80 93 b2 04 	sts	0x04B2, r24
    2b60:	85 ea       	ldi	r24, 0xA5	; 165
    2b62:	26 c0       	rjmp	.+76     	; 0x2bb0 <__vector_33+0x10c>
    2b64:	80 91 ca 04 	lds	r24, 0x04CA
    2b68:	90 91 73 00 	lds	r25, 0x0073
    2b6c:	e8 2f       	mov	r30, r24
    2b6e:	f0 e0       	ldi	r31, 0x00	; 0
    2b70:	ee 54       	subi	r30, 0x4E	; 78
    2b72:	fb 4f       	sbci	r31, 0xFB	; 251
    2b74:	90 83       	st	Z, r25
    2b76:	8f 5f       	subi	r24, 0xFF	; 255
    2b78:	80 93 ca 04 	sts	0x04CA, r24
    2b7c:	80 91 ca 04 	lds	r24, 0x04CA
    2b80:	20 91 c7 04 	lds	r18, 0x04C7
    2b84:	90 e0       	ldi	r25, 0x00	; 0
    2b86:	01 96       	adiw	r24, 0x01	; 1
    2b88:	30 e0       	ldi	r19, 0x00	; 0
    2b8a:	82 17       	cp	r24, r18
    2b8c:	93 07       	cpc	r25, r19
    2b8e:	14 f4       	brge	.+4      	; 0x2b94 <__vector_33+0xf0>
    2b90:	85 ec       	ldi	r24, 0xC5	; 197
    2b92:	0e c0       	rjmp	.+28     	; 0x2bb0 <__vector_33+0x10c>
    2b94:	85 e8       	ldi	r24, 0x85	; 133
    2b96:	0c c0       	rjmp	.+24     	; 0x2bb0 <__vector_33+0x10c>
    2b98:	e0 91 ca 04 	lds	r30, 0x04CA
    2b9c:	80 91 73 00 	lds	r24, 0x0073
    2ba0:	f0 e0       	ldi	r31, 0x00	; 0
    2ba2:	ee 54       	subi	r30, 0x4E	; 78
    2ba4:	fb 4f       	sbci	r31, 0xFB	; 251
    2ba6:	80 83       	st	Z, r24
    2ba8:	82 e0       	ldi	r24, 0x02	; 2
    2baa:	80 93 c6 04 	sts	0x04C6, r24
    2bae:	84 e9       	ldi	r24, 0x94	; 148
    2bb0:	80 93 74 00 	sts	0x0074, r24
    2bb4:	10 c0       	rjmp	.+32     	; 0x2bd6 <__vector_33+0x132>
    2bb6:	84 e8       	ldi	r24, 0x84	; 132
    2bb8:	80 93 74 00 	sts	0x0074, r24
    2bbc:	85 e1       	ldi	r24, 0x15	; 21
    2bbe:	09 c0       	rjmp	.+18     	; 0x2bd2 <__vector_33+0x12e>
    2bc0:	84 e9       	ldi	r24, 0x94	; 148
    2bc2:	80 93 74 00 	sts	0x0074, r24
    2bc6:	86 e1       	ldi	r24, 0x16	; 22
    2bc8:	04 c0       	rjmp	.+8      	; 0x2bd2 <__vector_33+0x12e>
    2bca:	84 e8       	ldi	r24, 0x84	; 132
    2bcc:	80 93 74 00 	sts	0x0074, r24
    2bd0:	87 e1       	ldi	r24, 0x17	; 23
    2bd2:	80 93 c6 04 	sts	0x04C6, r24
    2bd6:	ff 91       	pop	r31
    2bd8:	ef 91       	pop	r30
    2bda:	9f 91       	pop	r25
    2bdc:	8f 91       	pop	r24
    2bde:	3f 91       	pop	r19
    2be0:	2f 91       	pop	r18
    2be2:	0f 90       	pop	r0
    2be4:	0b be       	out	0x3b, r0	; 59
    2be6:	0f 90       	pop	r0
    2be8:	0f be       	out	0x3f, r0	; 63
    2bea:	0f 90       	pop	r0
    2bec:	1f 90       	pop	r1
    2bee:	18 95       	reti

00002bf0 <__divmodhi4>:
    2bf0:	97 fb       	bst	r25, 7
    2bf2:	09 2e       	mov	r0, r25
    2bf4:	07 26       	eor	r0, r23
    2bf6:	0a d0       	rcall	.+20     	; 0x2c0c <__divmodhi4_neg1>
    2bf8:	77 fd       	sbrc	r23, 7
    2bfa:	04 d0       	rcall	.+8      	; 0x2c04 <__divmodhi4_neg2>
    2bfc:	2e d0       	rcall	.+92     	; 0x2c5a <__udivmodhi4>
    2bfe:	06 d0       	rcall	.+12     	; 0x2c0c <__divmodhi4_neg1>
    2c00:	00 20       	and	r0, r0
    2c02:	1a f4       	brpl	.+6      	; 0x2c0a <__divmodhi4_exit>

00002c04 <__divmodhi4_neg2>:
    2c04:	70 95       	com	r23
    2c06:	61 95       	neg	r22
    2c08:	7f 4f       	sbci	r23, 0xFF	; 255

00002c0a <__divmodhi4_exit>:
    2c0a:	08 95       	ret

00002c0c <__divmodhi4_neg1>:
    2c0c:	f6 f7       	brtc	.-4      	; 0x2c0a <__divmodhi4_exit>
    2c0e:	90 95       	com	r25
    2c10:	81 95       	neg	r24
    2c12:	9f 4f       	sbci	r25, 0xFF	; 255
    2c14:	08 95       	ret

00002c16 <__udivmodsi4>:
    2c16:	a1 e2       	ldi	r26, 0x21	; 33
    2c18:	1a 2e       	mov	r1, r26
    2c1a:	aa 1b       	sub	r26, r26
    2c1c:	bb 1b       	sub	r27, r27
    2c1e:	fd 01       	movw	r30, r26
    2c20:	0d c0       	rjmp	.+26     	; 0x2c3c <__udivmodsi4_ep>

00002c22 <__udivmodsi4_loop>:
    2c22:	aa 1f       	adc	r26, r26
    2c24:	bb 1f       	adc	r27, r27
    2c26:	ee 1f       	adc	r30, r30
    2c28:	ff 1f       	adc	r31, r31
    2c2a:	a2 17       	cp	r26, r18
    2c2c:	b3 07       	cpc	r27, r19
    2c2e:	e4 07       	cpc	r30, r20
    2c30:	f5 07       	cpc	r31, r21
    2c32:	20 f0       	brcs	.+8      	; 0x2c3c <__udivmodsi4_ep>
    2c34:	a2 1b       	sub	r26, r18
    2c36:	b3 0b       	sbc	r27, r19
    2c38:	e4 0b       	sbc	r30, r20
    2c3a:	f5 0b       	sbc	r31, r21

00002c3c <__udivmodsi4_ep>:
    2c3c:	66 1f       	adc	r22, r22
    2c3e:	77 1f       	adc	r23, r23
    2c40:	88 1f       	adc	r24, r24
    2c42:	99 1f       	adc	r25, r25
    2c44:	1a 94       	dec	r1
    2c46:	69 f7       	brne	.-38     	; 0x2c22 <__udivmodsi4_loop>
    2c48:	60 95       	com	r22
    2c4a:	70 95       	com	r23
    2c4c:	80 95       	com	r24
    2c4e:	90 95       	com	r25
    2c50:	9b 01       	movw	r18, r22
    2c52:	ac 01       	movw	r20, r24
    2c54:	bd 01       	movw	r22, r26
    2c56:	cf 01       	movw	r24, r30
    2c58:	08 95       	ret

00002c5a <__udivmodhi4>:
    2c5a:	aa 1b       	sub	r26, r26
    2c5c:	bb 1b       	sub	r27, r27
    2c5e:	51 e1       	ldi	r21, 0x11	; 17
    2c60:	07 c0       	rjmp	.+14     	; 0x2c70 <__udivmodhi4_ep>

00002c62 <__udivmodhi4_loop>:
    2c62:	aa 1f       	adc	r26, r26
    2c64:	bb 1f       	adc	r27, r27
    2c66:	a6 17       	cp	r26, r22
    2c68:	b7 07       	cpc	r27, r23
    2c6a:	10 f0       	brcs	.+4      	; 0x2c70 <__udivmodhi4_ep>
    2c6c:	a6 1b       	sub	r26, r22
    2c6e:	b7 0b       	sbc	r27, r23

00002c70 <__udivmodhi4_ep>:
    2c70:	88 1f       	adc	r24, r24
    2c72:	99 1f       	adc	r25, r25
    2c74:	5a 95       	dec	r21
    2c76:	a9 f7       	brne	.-22     	; 0x2c62 <__udivmodhi4_loop>
    2c78:	80 95       	com	r24
    2c7a:	90 95       	com	r25
    2c7c:	bc 01       	movw	r22, r24
    2c7e:	cd 01       	movw	r24, r26
    2c80:	08 95       	ret

00002c82 <__ftoa_engine>:
    2c82:	28 30       	cpi	r18, 0x08	; 8
    2c84:	08 f0       	brcs	.+2      	; 0x2c88 <__ftoa_engine+0x6>
    2c86:	27 e0       	ldi	r18, 0x07	; 7
    2c88:	33 27       	eor	r19, r19
    2c8a:	da 01       	movw	r26, r20
    2c8c:	99 0f       	add	r25, r25
    2c8e:	31 1d       	adc	r19, r1
    2c90:	87 fd       	sbrc	r24, 7
    2c92:	91 60       	ori	r25, 0x01	; 1
    2c94:	00 96       	adiw	r24, 0x00	; 0
    2c96:	61 05       	cpc	r22, r1
    2c98:	71 05       	cpc	r23, r1
    2c9a:	39 f4       	brne	.+14     	; 0x2caa <__ftoa_engine+0x28>
    2c9c:	32 60       	ori	r19, 0x02	; 2
    2c9e:	2e 5f       	subi	r18, 0xFE	; 254
    2ca0:	3d 93       	st	X+, r19
    2ca2:	30 e3       	ldi	r19, 0x30	; 48
    2ca4:	2a 95       	dec	r18
    2ca6:	e1 f7       	brne	.-8      	; 0x2ca0 <__ftoa_engine+0x1e>
    2ca8:	08 95       	ret
    2caa:	9f 3f       	cpi	r25, 0xFF	; 255
    2cac:	30 f0       	brcs	.+12     	; 0x2cba <__ftoa_engine+0x38>
    2cae:	80 38       	cpi	r24, 0x80	; 128
    2cb0:	71 05       	cpc	r23, r1
    2cb2:	61 05       	cpc	r22, r1
    2cb4:	09 f0       	breq	.+2      	; 0x2cb8 <__ftoa_engine+0x36>
    2cb6:	3c 5f       	subi	r19, 0xFC	; 252
    2cb8:	3c 5f       	subi	r19, 0xFC	; 252
    2cba:	3d 93       	st	X+, r19
    2cbc:	91 30       	cpi	r25, 0x01	; 1
    2cbe:	08 f0       	brcs	.+2      	; 0x2cc2 <__ftoa_engine+0x40>
    2cc0:	80 68       	ori	r24, 0x80	; 128
    2cc2:	91 1d       	adc	r25, r1
    2cc4:	df 93       	push	r29
    2cc6:	cf 93       	push	r28
    2cc8:	1f 93       	push	r17
    2cca:	0f 93       	push	r16
    2ccc:	ff 92       	push	r15
    2cce:	ef 92       	push	r14
    2cd0:	19 2f       	mov	r17, r25
    2cd2:	98 7f       	andi	r25, 0xF8	; 248
    2cd4:	96 95       	lsr	r25
    2cd6:	e9 2f       	mov	r30, r25
    2cd8:	96 95       	lsr	r25
    2cda:	96 95       	lsr	r25
    2cdc:	e9 0f       	add	r30, r25
    2cde:	ff 27       	eor	r31, r31
    2ce0:	e5 56       	subi	r30, 0x65	; 101
    2ce2:	fd 4f       	sbci	r31, 0xFD	; 253
    2ce4:	99 27       	eor	r25, r25
    2ce6:	33 27       	eor	r19, r19
    2ce8:	ee 24       	eor	r14, r14
    2cea:	ff 24       	eor	r15, r15
    2cec:	a7 01       	movw	r20, r14
    2cee:	e7 01       	movw	r28, r14
    2cf0:	05 90       	lpm	r0, Z+
    2cf2:	08 94       	sec
    2cf4:	07 94       	ror	r0
    2cf6:	28 f4       	brcc	.+10     	; 0x2d02 <__ftoa_engine+0x80>
    2cf8:	36 0f       	add	r19, r22
    2cfa:	e7 1e       	adc	r14, r23
    2cfc:	f8 1e       	adc	r15, r24
    2cfe:	49 1f       	adc	r20, r25
    2d00:	51 1d       	adc	r21, r1
    2d02:	66 0f       	add	r22, r22
    2d04:	77 1f       	adc	r23, r23
    2d06:	88 1f       	adc	r24, r24
    2d08:	99 1f       	adc	r25, r25
    2d0a:	06 94       	lsr	r0
    2d0c:	a1 f7       	brne	.-24     	; 0x2cf6 <__ftoa_engine+0x74>
    2d0e:	05 90       	lpm	r0, Z+
    2d10:	07 94       	ror	r0
    2d12:	28 f4       	brcc	.+10     	; 0x2d1e <__ftoa_engine+0x9c>
    2d14:	e7 0e       	add	r14, r23
    2d16:	f8 1e       	adc	r15, r24
    2d18:	49 1f       	adc	r20, r25
    2d1a:	56 1f       	adc	r21, r22
    2d1c:	c1 1d       	adc	r28, r1
    2d1e:	77 0f       	add	r23, r23
    2d20:	88 1f       	adc	r24, r24
    2d22:	99 1f       	adc	r25, r25
    2d24:	66 1f       	adc	r22, r22
    2d26:	06 94       	lsr	r0
    2d28:	a1 f7       	brne	.-24     	; 0x2d12 <__ftoa_engine+0x90>
    2d2a:	05 90       	lpm	r0, Z+
    2d2c:	07 94       	ror	r0
    2d2e:	28 f4       	brcc	.+10     	; 0x2d3a <__ftoa_engine+0xb8>
    2d30:	f8 0e       	add	r15, r24
    2d32:	49 1f       	adc	r20, r25
    2d34:	56 1f       	adc	r21, r22
    2d36:	c7 1f       	adc	r28, r23
    2d38:	d1 1d       	adc	r29, r1
    2d3a:	88 0f       	add	r24, r24
    2d3c:	99 1f       	adc	r25, r25
    2d3e:	66 1f       	adc	r22, r22
    2d40:	77 1f       	adc	r23, r23
    2d42:	06 94       	lsr	r0
    2d44:	a1 f7       	brne	.-24     	; 0x2d2e <__ftoa_engine+0xac>
    2d46:	05 90       	lpm	r0, Z+
    2d48:	07 94       	ror	r0
    2d4a:	20 f4       	brcc	.+8      	; 0x2d54 <__ftoa_engine+0xd2>
    2d4c:	49 0f       	add	r20, r25
    2d4e:	56 1f       	adc	r21, r22
    2d50:	c7 1f       	adc	r28, r23
    2d52:	d8 1f       	adc	r29, r24
    2d54:	99 0f       	add	r25, r25
    2d56:	66 1f       	adc	r22, r22
    2d58:	77 1f       	adc	r23, r23
    2d5a:	88 1f       	adc	r24, r24
    2d5c:	06 94       	lsr	r0
    2d5e:	a9 f7       	brne	.-22     	; 0x2d4a <__ftoa_engine+0xc8>
    2d60:	84 91       	lpm	r24, Z+
    2d62:	10 95       	com	r17
    2d64:	17 70       	andi	r17, 0x07	; 7
    2d66:	41 f0       	breq	.+16     	; 0x2d78 <__ftoa_engine+0xf6>
    2d68:	d6 95       	lsr	r29
    2d6a:	c7 95       	ror	r28
    2d6c:	57 95       	ror	r21
    2d6e:	47 95       	ror	r20
    2d70:	f7 94       	ror	r15
    2d72:	e7 94       	ror	r14
    2d74:	1a 95       	dec	r17
    2d76:	c1 f7       	brne	.-16     	; 0x2d68 <__ftoa_engine+0xe6>
    2d78:	e1 e4       	ldi	r30, 0x41	; 65
    2d7a:	f2 e0       	ldi	r31, 0x02	; 2
    2d7c:	68 94       	set
    2d7e:	15 90       	lpm	r1, Z+
    2d80:	15 91       	lpm	r17, Z+
    2d82:	35 91       	lpm	r19, Z+
    2d84:	65 91       	lpm	r22, Z+
    2d86:	95 91       	lpm	r25, Z+
    2d88:	05 90       	lpm	r0, Z+
    2d8a:	7f e2       	ldi	r23, 0x2F	; 47
    2d8c:	73 95       	inc	r23
    2d8e:	e1 18       	sub	r14, r1
    2d90:	f1 0a       	sbc	r15, r17
    2d92:	43 0b       	sbc	r20, r19
    2d94:	56 0b       	sbc	r21, r22
    2d96:	c9 0b       	sbc	r28, r25
    2d98:	d0 09       	sbc	r29, r0
    2d9a:	c0 f7       	brcc	.-16     	; 0x2d8c <__ftoa_engine+0x10a>
    2d9c:	e1 0c       	add	r14, r1
    2d9e:	f1 1e       	adc	r15, r17
    2da0:	43 1f       	adc	r20, r19
    2da2:	56 1f       	adc	r21, r22
    2da4:	c9 1f       	adc	r28, r25
    2da6:	d0 1d       	adc	r29, r0
    2da8:	7e f4       	brtc	.+30     	; 0x2dc8 <__ftoa_engine+0x146>
    2daa:	70 33       	cpi	r23, 0x30	; 48
    2dac:	11 f4       	brne	.+4      	; 0x2db2 <__ftoa_engine+0x130>
    2dae:	8a 95       	dec	r24
    2db0:	e6 cf       	rjmp	.-52     	; 0x2d7e <__ftoa_engine+0xfc>
    2db2:	e8 94       	clt
    2db4:	01 50       	subi	r16, 0x01	; 1
    2db6:	30 f0       	brcs	.+12     	; 0x2dc4 <__ftoa_engine+0x142>
    2db8:	08 0f       	add	r16, r24
    2dba:	0a f4       	brpl	.+2      	; 0x2dbe <__ftoa_engine+0x13c>
    2dbc:	00 27       	eor	r16, r16
    2dbe:	02 17       	cp	r16, r18
    2dc0:	08 f4       	brcc	.+2      	; 0x2dc4 <__ftoa_engine+0x142>
    2dc2:	20 2f       	mov	r18, r16
    2dc4:	23 95       	inc	r18
    2dc6:	02 2f       	mov	r16, r18
    2dc8:	7a 33       	cpi	r23, 0x3A	; 58
    2dca:	28 f0       	brcs	.+10     	; 0x2dd6 <__ftoa_engine+0x154>
    2dcc:	79 e3       	ldi	r23, 0x39	; 57
    2dce:	7d 93       	st	X+, r23
    2dd0:	2a 95       	dec	r18
    2dd2:	e9 f7       	brne	.-6      	; 0x2dce <__ftoa_engine+0x14c>
    2dd4:	10 c0       	rjmp	.+32     	; 0x2df6 <__ftoa_engine+0x174>
    2dd6:	7d 93       	st	X+, r23
    2dd8:	2a 95       	dec	r18
    2dda:	89 f6       	brne	.-94     	; 0x2d7e <__ftoa_engine+0xfc>
    2ddc:	06 94       	lsr	r0
    2dde:	97 95       	ror	r25
    2de0:	67 95       	ror	r22
    2de2:	37 95       	ror	r19
    2de4:	17 95       	ror	r17
    2de6:	17 94       	ror	r1
    2de8:	e1 18       	sub	r14, r1
    2dea:	f1 0a       	sbc	r15, r17
    2dec:	43 0b       	sbc	r20, r19
    2dee:	56 0b       	sbc	r21, r22
    2df0:	c9 0b       	sbc	r28, r25
    2df2:	d0 09       	sbc	r29, r0
    2df4:	98 f0       	brcs	.+38     	; 0x2e1c <__ftoa_engine+0x19a>
    2df6:	23 95       	inc	r18
    2df8:	7e 91       	ld	r23, -X
    2dfa:	73 95       	inc	r23
    2dfc:	7a 33       	cpi	r23, 0x3A	; 58
    2dfe:	08 f0       	brcs	.+2      	; 0x2e02 <__ftoa_engine+0x180>
    2e00:	70 e3       	ldi	r23, 0x30	; 48
    2e02:	7c 93       	st	X, r23
    2e04:	20 13       	cpse	r18, r16
    2e06:	b8 f7       	brcc	.-18     	; 0x2df6 <__ftoa_engine+0x174>
    2e08:	7e 91       	ld	r23, -X
    2e0a:	70 61       	ori	r23, 0x10	; 16
    2e0c:	7d 93       	st	X+, r23
    2e0e:	30 f0       	brcs	.+12     	; 0x2e1c <__ftoa_engine+0x19a>
    2e10:	83 95       	inc	r24
    2e12:	71 e3       	ldi	r23, 0x31	; 49
    2e14:	7d 93       	st	X+, r23
    2e16:	70 e3       	ldi	r23, 0x30	; 48
    2e18:	2a 95       	dec	r18
    2e1a:	e1 f7       	brne	.-8      	; 0x2e14 <__ftoa_engine+0x192>
    2e1c:	11 24       	eor	r1, r1
    2e1e:	ef 90       	pop	r14
    2e20:	ff 90       	pop	r15
    2e22:	0f 91       	pop	r16
    2e24:	1f 91       	pop	r17
    2e26:	cf 91       	pop	r28
    2e28:	df 91       	pop	r29
    2e2a:	99 27       	eor	r25, r25
    2e2c:	87 fd       	sbrc	r24, 7
    2e2e:	90 95       	com	r25
    2e30:	08 95       	ret

00002e32 <strnlen_P>:
    2e32:	fc 01       	movw	r30, r24
    2e34:	05 90       	lpm	r0, Z+
    2e36:	61 50       	subi	r22, 0x01	; 1
    2e38:	70 40       	sbci	r23, 0x00	; 0
    2e3a:	01 10       	cpse	r0, r1
    2e3c:	d8 f7       	brcc	.-10     	; 0x2e34 <strnlen_P+0x2>
    2e3e:	80 95       	com	r24
    2e40:	90 95       	com	r25
    2e42:	8e 0f       	add	r24, r30
    2e44:	9f 1f       	adc	r25, r31
    2e46:	08 95       	ret

00002e48 <strcpy>:
    2e48:	fb 01       	movw	r30, r22
    2e4a:	dc 01       	movw	r26, r24
    2e4c:	01 90       	ld	r0, Z+
    2e4e:	0d 92       	st	X+, r0
    2e50:	00 20       	and	r0, r0
    2e52:	e1 f7       	brne	.-8      	; 0x2e4c <strcpy+0x4>
    2e54:	08 95       	ret

00002e56 <strnlen>:
    2e56:	fc 01       	movw	r30, r24
    2e58:	61 50       	subi	r22, 0x01	; 1
    2e5a:	70 40       	sbci	r23, 0x00	; 0
    2e5c:	01 90       	ld	r0, Z+
    2e5e:	01 10       	cpse	r0, r1
    2e60:	d8 f7       	brcc	.-10     	; 0x2e58 <strnlen+0x2>
    2e62:	80 95       	com	r24
    2e64:	90 95       	com	r25
    2e66:	8e 0f       	add	r24, r30
    2e68:	9f 1f       	adc	r25, r31
    2e6a:	08 95       	ret

00002e6c <fputc>:
    2e6c:	0f 93       	push	r16
    2e6e:	1f 93       	push	r17
    2e70:	cf 93       	push	r28
    2e72:	df 93       	push	r29
    2e74:	8c 01       	movw	r16, r24
    2e76:	eb 01       	movw	r28, r22
    2e78:	8b 81       	ldd	r24, Y+3	; 0x03
    2e7a:	81 ff       	sbrs	r24, 1
    2e7c:	1b c0       	rjmp	.+54     	; 0x2eb4 <fputc+0x48>
    2e7e:	82 ff       	sbrs	r24, 2
    2e80:	0d c0       	rjmp	.+26     	; 0x2e9c <fputc+0x30>
    2e82:	2e 81       	ldd	r18, Y+6	; 0x06
    2e84:	3f 81       	ldd	r19, Y+7	; 0x07
    2e86:	8c 81       	ldd	r24, Y+4	; 0x04
    2e88:	9d 81       	ldd	r25, Y+5	; 0x05
    2e8a:	28 17       	cp	r18, r24
    2e8c:	39 07       	cpc	r19, r25
    2e8e:	64 f4       	brge	.+24     	; 0x2ea8 <fputc+0x3c>
    2e90:	e8 81       	ld	r30, Y
    2e92:	f9 81       	ldd	r31, Y+1	; 0x01
    2e94:	01 93       	st	Z+, r16
    2e96:	f9 83       	std	Y+1, r31	; 0x01
    2e98:	e8 83       	st	Y, r30
    2e9a:	06 c0       	rjmp	.+12     	; 0x2ea8 <fputc+0x3c>
    2e9c:	e8 85       	ldd	r30, Y+8	; 0x08
    2e9e:	f9 85       	ldd	r31, Y+9	; 0x09
    2ea0:	80 2f       	mov	r24, r16
    2ea2:	09 95       	icall
    2ea4:	89 2b       	or	r24, r25
    2ea6:	31 f4       	brne	.+12     	; 0x2eb4 <fputc+0x48>
    2ea8:	8e 81       	ldd	r24, Y+6	; 0x06
    2eaa:	9f 81       	ldd	r25, Y+7	; 0x07
    2eac:	01 96       	adiw	r24, 0x01	; 1
    2eae:	9f 83       	std	Y+7, r25	; 0x07
    2eb0:	8e 83       	std	Y+6, r24	; 0x06
    2eb2:	02 c0       	rjmp	.+4      	; 0x2eb8 <fputc+0x4c>
    2eb4:	0f ef       	ldi	r16, 0xFF	; 255
    2eb6:	1f ef       	ldi	r17, 0xFF	; 255
    2eb8:	c8 01       	movw	r24, r16
    2eba:	df 91       	pop	r29
    2ebc:	cf 91       	pop	r28
    2ebe:	1f 91       	pop	r17
    2ec0:	0f 91       	pop	r16
    2ec2:	08 95       	ret

00002ec4 <sprintf>:
    2ec4:	0f 93       	push	r16
    2ec6:	1f 93       	push	r17
    2ec8:	df 93       	push	r29
    2eca:	cf 93       	push	r28
    2ecc:	cd b7       	in	r28, 0x3d	; 61
    2ece:	de b7       	in	r29, 0x3e	; 62
    2ed0:	2e 97       	sbiw	r28, 0x0e	; 14
    2ed2:	0f b6       	in	r0, 0x3f	; 63
    2ed4:	f8 94       	cli
    2ed6:	de bf       	out	0x3e, r29	; 62
    2ed8:	0f be       	out	0x3f, r0	; 63
    2eda:	cd bf       	out	0x3d, r28	; 61
    2edc:	0d 89       	ldd	r16, Y+21	; 0x15
    2ede:	1e 89       	ldd	r17, Y+22	; 0x16
    2ee0:	86 e0       	ldi	r24, 0x06	; 6
    2ee2:	8c 83       	std	Y+4, r24	; 0x04
    2ee4:	1a 83       	std	Y+2, r17	; 0x02
    2ee6:	09 83       	std	Y+1, r16	; 0x01
    2ee8:	8f ef       	ldi	r24, 0xFF	; 255
    2eea:	9f e7       	ldi	r25, 0x7F	; 127
    2eec:	9e 83       	std	Y+6, r25	; 0x06
    2eee:	8d 83       	std	Y+5, r24	; 0x05
    2ef0:	9e 01       	movw	r18, r28
    2ef2:	27 5e       	subi	r18, 0xE7	; 231
    2ef4:	3f 4f       	sbci	r19, 0xFF	; 255
    2ef6:	ce 01       	movw	r24, r28
    2ef8:	01 96       	adiw	r24, 0x01	; 1
    2efa:	6f 89       	ldd	r22, Y+23	; 0x17
    2efc:	78 8d       	ldd	r23, Y+24	; 0x18
    2efe:	a9 01       	movw	r20, r18
    2f00:	0e 94 41 11 	call	0x2282	; 0x2282 <vfprintf>
    2f04:	2f 81       	ldd	r18, Y+7	; 0x07
    2f06:	38 85       	ldd	r19, Y+8	; 0x08
    2f08:	02 0f       	add	r16, r18
    2f0a:	13 1f       	adc	r17, r19
    2f0c:	f8 01       	movw	r30, r16
    2f0e:	10 82       	st	Z, r1
    2f10:	2e 96       	adiw	r28, 0x0e	; 14
    2f12:	0f b6       	in	r0, 0x3f	; 63
    2f14:	f8 94       	cli
    2f16:	de bf       	out	0x3e, r29	; 62
    2f18:	0f be       	out	0x3f, r0	; 63
    2f1a:	cd bf       	out	0x3d, r28	; 61
    2f1c:	cf 91       	pop	r28
    2f1e:	df 91       	pop	r29
    2f20:	1f 91       	pop	r17
    2f22:	0f 91       	pop	r16
    2f24:	08 95       	ret

00002f26 <__ultoa_invert>:
    2f26:	fa 01       	movw	r30, r20
    2f28:	aa 27       	eor	r26, r26
    2f2a:	28 30       	cpi	r18, 0x08	; 8
    2f2c:	51 f1       	breq	.+84     	; 0x2f82 <__ultoa_invert+0x5c>
    2f2e:	20 31       	cpi	r18, 0x10	; 16
    2f30:	81 f1       	breq	.+96     	; 0x2f92 <__ultoa_invert+0x6c>
    2f32:	e8 94       	clt
    2f34:	6f 93       	push	r22
    2f36:	6e 7f       	andi	r22, 0xFE	; 254
    2f38:	6e 5f       	subi	r22, 0xFE	; 254
    2f3a:	7f 4f       	sbci	r23, 0xFF	; 255
    2f3c:	8f 4f       	sbci	r24, 0xFF	; 255
    2f3e:	9f 4f       	sbci	r25, 0xFF	; 255
    2f40:	af 4f       	sbci	r26, 0xFF	; 255
    2f42:	b1 e0       	ldi	r27, 0x01	; 1
    2f44:	3e d0       	rcall	.+124    	; 0x2fc2 <__ultoa_invert+0x9c>
    2f46:	b4 e0       	ldi	r27, 0x04	; 4
    2f48:	3c d0       	rcall	.+120    	; 0x2fc2 <__ultoa_invert+0x9c>
    2f4a:	67 0f       	add	r22, r23
    2f4c:	78 1f       	adc	r23, r24
    2f4e:	89 1f       	adc	r24, r25
    2f50:	9a 1f       	adc	r25, r26
    2f52:	a1 1d       	adc	r26, r1
    2f54:	68 0f       	add	r22, r24
    2f56:	79 1f       	adc	r23, r25
    2f58:	8a 1f       	adc	r24, r26
    2f5a:	91 1d       	adc	r25, r1
    2f5c:	a1 1d       	adc	r26, r1
    2f5e:	6a 0f       	add	r22, r26
    2f60:	71 1d       	adc	r23, r1
    2f62:	81 1d       	adc	r24, r1
    2f64:	91 1d       	adc	r25, r1
    2f66:	a1 1d       	adc	r26, r1
    2f68:	20 d0       	rcall	.+64     	; 0x2faa <__ultoa_invert+0x84>
    2f6a:	09 f4       	brne	.+2      	; 0x2f6e <__ultoa_invert+0x48>
    2f6c:	68 94       	set
    2f6e:	3f 91       	pop	r19
    2f70:	2a e0       	ldi	r18, 0x0A	; 10
    2f72:	26 9f       	mul	r18, r22
    2f74:	11 24       	eor	r1, r1
    2f76:	30 19       	sub	r19, r0
    2f78:	30 5d       	subi	r19, 0xD0	; 208
    2f7a:	31 93       	st	Z+, r19
    2f7c:	de f6       	brtc	.-74     	; 0x2f34 <__ultoa_invert+0xe>
    2f7e:	cf 01       	movw	r24, r30
    2f80:	08 95       	ret
    2f82:	46 2f       	mov	r20, r22
    2f84:	47 70       	andi	r20, 0x07	; 7
    2f86:	40 5d       	subi	r20, 0xD0	; 208
    2f88:	41 93       	st	Z+, r20
    2f8a:	b3 e0       	ldi	r27, 0x03	; 3
    2f8c:	0f d0       	rcall	.+30     	; 0x2fac <__ultoa_invert+0x86>
    2f8e:	c9 f7       	brne	.-14     	; 0x2f82 <__ultoa_invert+0x5c>
    2f90:	f6 cf       	rjmp	.-20     	; 0x2f7e <__ultoa_invert+0x58>
    2f92:	46 2f       	mov	r20, r22
    2f94:	4f 70       	andi	r20, 0x0F	; 15
    2f96:	40 5d       	subi	r20, 0xD0	; 208
    2f98:	4a 33       	cpi	r20, 0x3A	; 58
    2f9a:	18 f0       	brcs	.+6      	; 0x2fa2 <__ultoa_invert+0x7c>
    2f9c:	49 5d       	subi	r20, 0xD9	; 217
    2f9e:	31 fd       	sbrc	r19, 1
    2fa0:	40 52       	subi	r20, 0x20	; 32
    2fa2:	41 93       	st	Z+, r20
    2fa4:	02 d0       	rcall	.+4      	; 0x2faa <__ultoa_invert+0x84>
    2fa6:	a9 f7       	brne	.-22     	; 0x2f92 <__ultoa_invert+0x6c>
    2fa8:	ea cf       	rjmp	.-44     	; 0x2f7e <__ultoa_invert+0x58>
    2faa:	b4 e0       	ldi	r27, 0x04	; 4
    2fac:	a6 95       	lsr	r26
    2fae:	97 95       	ror	r25
    2fb0:	87 95       	ror	r24
    2fb2:	77 95       	ror	r23
    2fb4:	67 95       	ror	r22
    2fb6:	ba 95       	dec	r27
    2fb8:	c9 f7       	brne	.-14     	; 0x2fac <__ultoa_invert+0x86>
    2fba:	00 97       	sbiw	r24, 0x00	; 0
    2fbc:	61 05       	cpc	r22, r1
    2fbe:	71 05       	cpc	r23, r1
    2fc0:	08 95       	ret
    2fc2:	9b 01       	movw	r18, r22
    2fc4:	ac 01       	movw	r20, r24
    2fc6:	0a 2e       	mov	r0, r26
    2fc8:	06 94       	lsr	r0
    2fca:	57 95       	ror	r21
    2fcc:	47 95       	ror	r20
    2fce:	37 95       	ror	r19
    2fd0:	27 95       	ror	r18
    2fd2:	ba 95       	dec	r27
    2fd4:	c9 f7       	brne	.-14     	; 0x2fc8 <__ultoa_invert+0xa2>
    2fd6:	62 0f       	add	r22, r18
    2fd8:	73 1f       	adc	r23, r19
    2fda:	84 1f       	adc	r24, r20
    2fdc:	95 1f       	adc	r25, r21
    2fde:	a0 1d       	adc	r26, r0
    2fe0:	08 95       	ret

00002fe2 <_exit>:
    2fe2:	f8 94       	cli

00002fe4 <__stop_program>:
    2fe4:	ff cf       	rjmp	.-2      	; 0x2fe4 <__stop_program>
